

Microchip Technology PIC LITE Macro Assembler V2.00 build -1524193055 
                                                                                               Mon Apr 17 15:32:00 2023

Microchip Technology Omniscient Code Generator v2.00 (Free mode) build 20180527130849
     1  0000                     
      + 0000                     
     2                           ; Version 2.00
     3                           ; Generated 27/05/2018 GMT
     4                           
     5                           ; 
     6                           ; Copyright © 2018, Microchip Technology Inc. and its subsidiaries ("Microchip")
     7                           ; All rights reserved.
     8                           ; 
     9                           ; This software is developed by Microchip Technology Inc. and its subsidiaries ("Microch
                                 ip").
    10                           ; 
    11                           ; Redistribution and use in source and binary forms, with or without modification, are
    12                           ; permitted provided that the following conditions are met:
    13                           ; 
    14                           ;     1. Redistributions of source code must retain the above copyright notice, this lis
                                 t of
    15                           ;        conditions and the following disclaimer.
    16                           ; 
    17                           ;     2. Redistributions in binary form must reproduce the above copyright notice, this 
                                 list
    18                           ;        of conditions and the following disclaimer in the documentation and/or other
    19                           ;        materials provided with the distribution.
    20                           ; 
    21                           ;     3. Microchip's name may not be used to endorse or promote products derived from th
                                 is
    22                           ;        software without specific prior written permission.
    23                           ; 
    24                           ; THIS SOFTWARE IS PROVIDED BY MICROCHIP "AS IS" AND ANY EXPRESS OR IMPLIED WARRANTIES,

    25                           ; INCLUDING, BUT NOT LIMITED TO, THE IMPLIED WARRANTIES OF MERCHANTABILITY AND FITNESS F
                                 OR
    26                           ; PURPOSE ARE DISCLAIMED.  IN NO EVENT SHALL MICROCHIP BE LIABLE FOR ANY DIRECT, INDIREC
                                 T,
    27                           ; INCIDENTAL, SPECIAL, EXEMPLARY, OR CONSEQUENTIAL DAMAGES (INCLUDING BUT NOT LIMITED TO
                                 
    28                           ; PROCUREMENT OF SUBSTITUTE GOODS OR SERVICES; LOSS OF USE, DATA OR PROFITS; OR BUSINESS
                                 
    29                           ; INTERRUPTION) HOWSOEVER CAUSED AND ON ANY THEORY OF LIABILITY, WHETHER IN CONTRACT, ST
                                 RICT
    30                           ; LIABILITY, OR TORT (INCLUDING NEGLIGENCE OR OTHERWISE) ARISING IN ANY WAY OUT OF THE U
                                 SE OF
    31                           ; THIS SOFTWARE, EVEN IF ADVISED OF THE POSSIBILITY OF SUCH DAMAGE.
    32                           ; 
    33                           
    34                           
    35                           ; 
    36                           ; Code-generator required, PIC16F887 Definitions
    37                           ; 
    38  0004                     fsr0 equ 04h
    39  0004                     indf equ 00h
    40  0000                     indf0 equ 00h
    41  0000                     pc equ 02h
    42  0002                     pcl equ 02h
    43  0002                     pclath equ 0Ah
    44  000A                     status equ 03h
    45  0003                     
     2                           opt pagewidth 120
     3  0000                     byte0	macro	val
     4                           	(getbyte(val,0))
     5                           endm
     6  0000                     byte1	macro	val
     7                           	(getbyte(val,1))
     8                           endm
     9  0000                     byte2	macro	val
    10                           	(getbyte(val,2))
    11                           endm
    12  0000                     byte3	macro	val
    13                           	(getbyte(val,3))
    14                           endm
    15  0000                     byte4	macro	val
    16                           	(getbyte(val,4))
    17                           endm
    18  0000                     byte5	macro	val
    19                           	(getbyte(val,5))
    20                           endm
    21  0000                     byte6	macro	val
    22                           	(getbyte(val,6))
    23                           endm
    24  0000                     byte7	macro	val
    25                           	(getbyte(val,7))
    26                           endm
    27  0000                     getword	macro	val,pos
    28                           	(((val) >> (8 * pos)) and 0xffff)
    29                           endm
    30  0000                     word0	macro	val
    31                           	(getword(val,0))
    32                           endm
    33  0000                     word1	macro	val
    34                           	(getword(val,2))
    35                           endm
    36  0000                     word2	macro	val
    37                           	(getword(val,4))
    38                           endm
    39  0000                     word3	macro	val
    40                           	(getword(val,6))
    41                           endm
    42  0000                     gettword	macro	val,pos
    43                           	(((val) >> (8 * pos)) and 0xffffff)
    44                           endm
    45  0000                     tword0	macro	val
    46                           	(gettword(val,0))
    47                           endm
    48  0000                     tword1	macro	val
    49                           	(gettword(val,3))
    50                           endm
    51  0000                     tword2	macro	val
    52                           	(gettword(val,6))
    53                           endm
    54  0000                     getdword	macro	val,pos
    55                           	(((val) >> (8 * pos)) and 0xffffffff)
    56                           endm
    57  0000                     dword0	macro	val
    58                           	(getdword(val,0))
    59                           endm
    60  0000                     dword1	macro	val
    61                           	(getdword(val,4))
    62                           endm
    63  0000                     clrc	macro
    64                           	bcf	3,0
    65                           	endm
    66  0000                     clrz	macro
    67                           	bcf	3,2
    68                           	endm
    69  0000                     setc	macro
    70                           	bsf	3,0
    71                           	endm
    72  0000                     setz	macro
    73                           	bsf	3,2
    74                           	endm
    75  0000                     skipc	macro
    76                           	btfss	3,0
    77                           	endm
    78  0000                     skipz	macro
    79                           	btfss	3,2
    80                           	endm
    81  0000                     skipnc	macro
    82                           	btfsc	3,0
    83                           	endm
    84  0000                     skipnz	macro
    85                           	btfsc	3,2
    86                           	endm
    87  0000                     # 54 "C:\Program Files (x86)\Microchip\xc8\v2.00\pic\include\pic16f887.h"
    88                           INDF equ 00h ;# 
    89  0000                     # 61 "C:\Program Files (x86)\Microchip\xc8\v2.00\pic\include\pic16f887.h"
    90                           TMR0 equ 01h ;# 
    91  0001                     # 68 "C:\Program Files (x86)\Microchip\xc8\v2.00\pic\include\pic16f887.h"
    92                           PCL equ 02h ;# 
    93  0002                     # 75 "C:\Program Files (x86)\Microchip\xc8\v2.00\pic\include\pic16f887.h"
    94                           STATUS equ 03h ;# 
    95  0003                     # 161 "C:\Program Files (x86)\Microchip\xc8\v2.00\pic\include\pic16f887.h"
    96                           FSR equ 04h ;# 
    97  0004                     # 168 "C:\Program Files (x86)\Microchip\xc8\v2.00\pic\include\pic16f887.h"
    98                           PORTA equ 05h ;# 
    99  0005                     # 230 "C:\Program Files (x86)\Microchip\xc8\v2.00\pic\include\pic16f887.h"
   100                           PORTB equ 06h ;# 
   101  0006                     # 292 "C:\Program Files (x86)\Microchip\xc8\v2.00\pic\include\pic16f887.h"
   102                           PORTC equ 07h ;# 
   103  0007                     # 354 "C:\Program Files (x86)\Microchip\xc8\v2.00\pic\include\pic16f887.h"
   104                           PORTD equ 08h ;# 
   105  0008                     # 416 "C:\Program Files (x86)\Microchip\xc8\v2.00\pic\include\pic16f887.h"
   106                           PORTE equ 09h ;# 
   107  0009                     # 454 "C:\Program Files (x86)\Microchip\xc8\v2.00\pic\include\pic16f887.h"
   108                           PCLATH equ 0Ah ;# 
   109  000A                     # 461 "C:\Program Files (x86)\Microchip\xc8\v2.00\pic\include\pic16f887.h"
   110                           INTCON equ 0Bh ;# 
   111  000B                     # 539 "C:\Program Files (x86)\Microchip\xc8\v2.00\pic\include\pic16f887.h"
   112                           PIR1 equ 0Ch ;# 
   113  000C                     # 595 "C:\Program Files (x86)\Microchip\xc8\v2.00\pic\include\pic16f887.h"
   114                           PIR2 equ 0Dh ;# 
   115  000D                     # 652 "C:\Program Files (x86)\Microchip\xc8\v2.00\pic\include\pic16f887.h"
   116                           TMR1 equ 0Eh ;# 
   117  000E                     # 659 "C:\Program Files (x86)\Microchip\xc8\v2.00\pic\include\pic16f887.h"
   118                           TMR1L equ 0Eh ;# 
   119  000E                     # 666 "C:\Program Files (x86)\Microchip\xc8\v2.00\pic\include\pic16f887.h"
   120                           TMR1H equ 0Fh ;# 
   121  000F                     # 673 "C:\Program Files (x86)\Microchip\xc8\v2.00\pic\include\pic16f887.h"
   122                           T1CON equ 010h ;# 
   123  0010                     # 767 "C:\Program Files (x86)\Microchip\xc8\v2.00\pic\include\pic16f887.h"
   124                           TMR2 equ 011h ;# 
   125  0011                     # 774 "C:\Program Files (x86)\Microchip\xc8\v2.00\pic\include\pic16f887.h"
   126                           T2CON equ 012h ;# 
   127  0012                     # 845 "C:\Program Files (x86)\Microchip\xc8\v2.00\pic\include\pic16f887.h"
   128                           SSPBUF equ 013h ;# 
   129  0013                     # 852 "C:\Program Files (x86)\Microchip\xc8\v2.00\pic\include\pic16f887.h"
   130                           SSPCON equ 014h ;# 
   131  0014                     # 922 "C:\Program Files (x86)\Microchip\xc8\v2.00\pic\include\pic16f887.h"
   132                           CCPR1 equ 015h ;# 
   133  0015                     # 929 "C:\Program Files (x86)\Microchip\xc8\v2.00\pic\include\pic16f887.h"
   134                           CCPR1L equ 015h ;# 
   135  0015                     # 936 "C:\Program Files (x86)\Microchip\xc8\v2.00\pic\include\pic16f887.h"
   136                           CCPR1H equ 016h ;# 
   137  0016                     # 943 "C:\Program Files (x86)\Microchip\xc8\v2.00\pic\include\pic16f887.h"
   138                           CCP1CON equ 017h ;# 
   139  0017                     # 1040 "C:\Program Files (x86)\Microchip\xc8\v2.00\pic\include\pic16f887.h"
   140                           RCSTA equ 018h ;# 
   141  0018                     # 1135 "C:\Program Files (x86)\Microchip\xc8\v2.00\pic\include\pic16f887.h"
   142                           TXREG equ 019h ;# 
   143  0019                     # 1142 "C:\Program Files (x86)\Microchip\xc8\v2.00\pic\include\pic16f887.h"
   144                           RCREG equ 01Ah ;# 
   145  001A                     # 1149 "C:\Program Files (x86)\Microchip\xc8\v2.00\pic\include\pic16f887.h"
   146                           CCPR2 equ 01Bh ;# 
   147  001B                     # 1156 "C:\Program Files (x86)\Microchip\xc8\v2.00\pic\include\pic16f887.h"
   148                           CCPR2L equ 01Bh ;# 
   149  001B                     # 1163 "C:\Program Files (x86)\Microchip\xc8\v2.00\pic\include\pic16f887.h"
   150                           CCPR2H equ 01Ch ;# 
   151  001C                     # 1170 "C:\Program Files (x86)\Microchip\xc8\v2.00\pic\include\pic16f887.h"
   152                           CCP2CON equ 01Dh ;# 
   153  001D                     # 1240 "C:\Program Files (x86)\Microchip\xc8\v2.00\pic\include\pic16f887.h"
   154                           ADRESH equ 01Eh ;# 
   155  001E                     # 1247 "C:\Program Files (x86)\Microchip\xc8\v2.00\pic\include\pic16f887.h"
   156                           ADCON0 equ 01Fh ;# 
   157  001F                     # 1348 "C:\Program Files (x86)\Microchip\xc8\v2.00\pic\include\pic16f887.h"
   158                           OPTION_REG equ 081h ;# 
   159  0081                     # 1418 "C:\Program Files (x86)\Microchip\xc8\v2.00\pic\include\pic16f887.h"
   160                           TRISA equ 085h ;# 
   161  0085                     # 1480 "C:\Program Files (x86)\Microchip\xc8\v2.00\pic\include\pic16f887.h"
   162                           TRISB equ 086h ;# 
   163  0086                     # 1542 "C:\Program Files (x86)\Microchip\xc8\v2.00\pic\include\pic16f887.h"
   164                           TRISC equ 087h ;# 
   165  0087                     # 1604 "C:\Program Files (x86)\Microchip\xc8\v2.00\pic\include\pic16f887.h"
   166                           TRISD equ 088h ;# 
   167  0088                     # 1666 "C:\Program Files (x86)\Microchip\xc8\v2.00\pic\include\pic16f887.h"
   168                           TRISE equ 089h ;# 
   169  0089                     # 1704 "C:\Program Files (x86)\Microchip\xc8\v2.00\pic\include\pic16f887.h"
   170                           PIE1 equ 08Ch ;# 
   171  008C                     # 1760 "C:\Program Files (x86)\Microchip\xc8\v2.00\pic\include\pic16f887.h"
   172                           PIE2 equ 08Dh ;# 
   173  008D                     # 1817 "C:\Program Files (x86)\Microchip\xc8\v2.00\pic\include\pic16f887.h"
   174                           PCON equ 08Eh ;# 
   175  008E                     # 1864 "C:\Program Files (x86)\Microchip\xc8\v2.00\pic\include\pic16f887.h"
   176                           OSCCON equ 08Fh ;# 
   177  008F                     # 1929 "C:\Program Files (x86)\Microchip\xc8\v2.00\pic\include\pic16f887.h"
   178                           OSCTUNE equ 090h ;# 
   179  0090                     # 1981 "C:\Program Files (x86)\Microchip\xc8\v2.00\pic\include\pic16f887.h"
   180                           SSPCON2 equ 091h ;# 
   181  0091                     # 2043 "C:\Program Files (x86)\Microchip\xc8\v2.00\pic\include\pic16f887.h"
   182                           PR2 equ 092h ;# 
   183  0092                     # 2050 "C:\Program Files (x86)\Microchip\xc8\v2.00\pic\include\pic16f887.h"
   184                           SSPADD equ 093h ;# 
   185  0093                     # 2057 "C:\Program Files (x86)\Microchip\xc8\v2.00\pic\include\pic16f887.h"
   186                           SSPMSK equ 093h ;# 
   187  0093                     # 2062 "C:\Program Files (x86)\Microchip\xc8\v2.00\pic\include\pic16f887.h"
   188                           MSK equ 093h ;# 
   189  0093                     # 2179 "C:\Program Files (x86)\Microchip\xc8\v2.00\pic\include\pic16f887.h"
   190                           SSPSTAT equ 094h ;# 
   191  0094                     # 2348 "C:\Program Files (x86)\Microchip\xc8\v2.00\pic\include\pic16f887.h"
   192                           WPUB equ 095h ;# 
   193  0095                     # 2418 "C:\Program Files (x86)\Microchip\xc8\v2.00\pic\include\pic16f887.h"
   194                           IOCB equ 096h ;# 
   195  0096                     # 2488 "C:\Program Files (x86)\Microchip\xc8\v2.00\pic\include\pic16f887.h"
   196                           VRCON equ 097h ;# 
   197  0097                     # 2558 "C:\Program Files (x86)\Microchip\xc8\v2.00\pic\include\pic16f887.h"
   198                           TXSTA equ 098h ;# 
   199  0098                     # 2644 "C:\Program Files (x86)\Microchip\xc8\v2.00\pic\include\pic16f887.h"
   200                           SPBRG equ 099h ;# 
   201  0099                     # 2706 "C:\Program Files (x86)\Microchip\xc8\v2.00\pic\include\pic16f887.h"
   202                           SPBRGH equ 09Ah ;# 
   203  009A                     # 2776 "C:\Program Files (x86)\Microchip\xc8\v2.00\pic\include\pic16f887.h"
   204                           PWM1CON equ 09Bh ;# 
   205  009B                     # 2846 "C:\Program Files (x86)\Microchip\xc8\v2.00\pic\include\pic16f887.h"
   206                           ECCPAS equ 09Ch ;# 
   207  009C                     # 2928 "C:\Program Files (x86)\Microchip\xc8\v2.00\pic\include\pic16f887.h"
   208                           PSTRCON equ 09Dh ;# 
   209  009D                     # 2972 "C:\Program Files (x86)\Microchip\xc8\v2.00\pic\include\pic16f887.h"
   210                           ADRESL equ 09Eh ;# 
   211  009E                     # 2979 "C:\Program Files (x86)\Microchip\xc8\v2.00\pic\include\pic16f887.h"
   212                           ADCON1 equ 09Fh ;# 
   213  009F                     # 3013 "C:\Program Files (x86)\Microchip\xc8\v2.00\pic\include\pic16f887.h"
   214                           WDTCON equ 0105h ;# 
   215  0105                     # 3066 "C:\Program Files (x86)\Microchip\xc8\v2.00\pic\include\pic16f887.h"
   216                           CM1CON0 equ 0107h ;# 
   217  0107                     # 3131 "C:\Program Files (x86)\Microchip\xc8\v2.00\pic\include\pic16f887.h"
   218                           CM2CON0 equ 0108h ;# 
   219  0108                     # 3196 "C:\Program Files (x86)\Microchip\xc8\v2.00\pic\include\pic16f887.h"
   220                           CM2CON1 equ 0109h ;# 
   221  0109                     # 3247 "C:\Program Files (x86)\Microchip\xc8\v2.00\pic\include\pic16f887.h"
   222                           EEDATA equ 010Ch ;# 
   223  010C                     # 3252 "C:\Program Files (x86)\Microchip\xc8\v2.00\pic\include\pic16f887.h"
   224                           EEDAT equ 010Ch ;# 
   225  010C                     # 3259 "C:\Program Files (x86)\Microchip\xc8\v2.00\pic\include\pic16f887.h"
   226                           EEADR equ 010Dh ;# 
   227  010D                     # 3266 "C:\Program Files (x86)\Microchip\xc8\v2.00\pic\include\pic16f887.h"
   228                           EEDATH equ 010Eh ;# 
   229  010E                     # 3273 "C:\Program Files (x86)\Microchip\xc8\v2.00\pic\include\pic16f887.h"
   230                           EEADRH equ 010Fh ;# 
   231  010F                     # 3280 "C:\Program Files (x86)\Microchip\xc8\v2.00\pic\include\pic16f887.h"
   232                           SRCON equ 0185h ;# 
   233  0185                     # 3337 "C:\Program Files (x86)\Microchip\xc8\v2.00\pic\include\pic16f887.h"
   234                           BAUDCTL equ 0187h ;# 
   235  0187                     # 3389 "C:\Program Files (x86)\Microchip\xc8\v2.00\pic\include\pic16f887.h"
   236                           ANSEL equ 0188h ;# 
   237  0188                     # 3451 "C:\Program Files (x86)\Microchip\xc8\v2.00\pic\include\pic16f887.h"
   238                           ANSELH equ 0189h ;# 
   239  0189                     # 3501 "C:\Program Files (x86)\Microchip\xc8\v2.00\pic\include\pic16f887.h"
   240                           EECON1 equ 018Ch ;# 
   241  018C                     # 3546 "C:\Program Files (x86)\Microchip\xc8\v2.00\pic\include\pic16f887.h"
   242                           EECON2 equ 018Dh ;# 
   243  018D                     # 54 "C:\Program Files (x86)\Microchip\xc8\v2.00\pic\include\pic16f887.h"
   244                           INDF equ 00h ;# 
   245  0000                     # 61 "C:\Program Files (x86)\Microchip\xc8\v2.00\pic\include\pic16f887.h"
   246                           TMR0 equ 01h ;# 
   247  0001                     # 68 "C:\Program Files (x86)\Microchip\xc8\v2.00\pic\include\pic16f887.h"
   248                           PCL equ 02h ;# 
   249  0002                     # 75 "C:\Program Files (x86)\Microchip\xc8\v2.00\pic\include\pic16f887.h"
   250                           STATUS equ 03h ;# 
   251  0003                     # 161 "C:\Program Files (x86)\Microchip\xc8\v2.00\pic\include\pic16f887.h"
   252                           FSR equ 04h ;# 
   253  0004                     # 168 "C:\Program Files (x86)\Microchip\xc8\v2.00\pic\include\pic16f887.h"
   254                           PORTA equ 05h ;# 
   255  0005                     # 230 "C:\Program Files (x86)\Microchip\xc8\v2.00\pic\include\pic16f887.h"
   256                           PORTB equ 06h ;# 
   257  0006                     # 292 "C:\Program Files (x86)\Microchip\xc8\v2.00\pic\include\pic16f887.h"
   258                           PORTC equ 07h ;# 
   259  0007                     # 354 "C:\Program Files (x86)\Microchip\xc8\v2.00\pic\include\pic16f887.h"
   260                           PORTD equ 08h ;# 
   261  0008                     # 416 "C:\Program Files (x86)\Microchip\xc8\v2.00\pic\include\pic16f887.h"
   262                           PORTE equ 09h ;# 
   263  0009                     # 454 "C:\Program Files (x86)\Microchip\xc8\v2.00\pic\include\pic16f887.h"
   264                           PCLATH equ 0Ah ;# 
   265  000A                     # 461 "C:\Program Files (x86)\Microchip\xc8\v2.00\pic\include\pic16f887.h"
   266                           INTCON equ 0Bh ;# 
   267  000B                     # 539 "C:\Program Files (x86)\Microchip\xc8\v2.00\pic\include\pic16f887.h"
   268                           PIR1 equ 0Ch ;# 
   269  000C                     # 595 "C:\Program Files (x86)\Microchip\xc8\v2.00\pic\include\pic16f887.h"
   270                           PIR2 equ 0Dh ;# 
   271  000D                     # 652 "C:\Program Files (x86)\Microchip\xc8\v2.00\pic\include\pic16f887.h"
   272                           TMR1 equ 0Eh ;# 
   273  000E                     # 659 "C:\Program Files (x86)\Microchip\xc8\v2.00\pic\include\pic16f887.h"
   274                           TMR1L equ 0Eh ;# 
   275  000E                     # 666 "C:\Program Files (x86)\Microchip\xc8\v2.00\pic\include\pic16f887.h"
   276                           TMR1H equ 0Fh ;# 
   277  000F                     # 673 "C:\Program Files (x86)\Microchip\xc8\v2.00\pic\include\pic16f887.h"
   278                           T1CON equ 010h ;# 
   279  0010                     # 767 "C:\Program Files (x86)\Microchip\xc8\v2.00\pic\include\pic16f887.h"
   280                           TMR2 equ 011h ;# 
   281  0011                     # 774 "C:\Program Files (x86)\Microchip\xc8\v2.00\pic\include\pic16f887.h"
   282                           T2CON equ 012h ;# 
   283  0012                     # 845 "C:\Program Files (x86)\Microchip\xc8\v2.00\pic\include\pic16f887.h"
   284                           SSPBUF equ 013h ;# 
   285  0013                     # 852 "C:\Program Files (x86)\Microchip\xc8\v2.00\pic\include\pic16f887.h"
   286                           SSPCON equ 014h ;# 
   287  0014                     # 922 "C:\Program Files (x86)\Microchip\xc8\v2.00\pic\include\pic16f887.h"
   288                           CCPR1 equ 015h ;# 
   289  0015                     # 929 "C:\Program Files (x86)\Microchip\xc8\v2.00\pic\include\pic16f887.h"
   290                           CCPR1L equ 015h ;# 
   291  0015                     # 936 "C:\Program Files (x86)\Microchip\xc8\v2.00\pic\include\pic16f887.h"
   292                           CCPR1H equ 016h ;# 
   293  0016                     # 943 "C:\Program Files (x86)\Microchip\xc8\v2.00\pic\include\pic16f887.h"
   294                           CCP1CON equ 017h ;# 
   295  0017                     # 1040 "C:\Program Files (x86)\Microchip\xc8\v2.00\pic\include\pic16f887.h"
   296                           RCSTA equ 018h ;# 
   297  0018                     # 1135 "C:\Program Files (x86)\Microchip\xc8\v2.00\pic\include\pic16f887.h"
   298                           TXREG equ 019h ;# 
   299  0019                     # 1142 "C:\Program Files (x86)\Microchip\xc8\v2.00\pic\include\pic16f887.h"
   300                           RCREG equ 01Ah ;# 
   301  001A                     # 1149 "C:\Program Files (x86)\Microchip\xc8\v2.00\pic\include\pic16f887.h"
   302                           CCPR2 equ 01Bh ;# 
   303  001B                     # 1156 "C:\Program Files (x86)\Microchip\xc8\v2.00\pic\include\pic16f887.h"
   304                           CCPR2L equ 01Bh ;# 
   305  001B                     # 1163 "C:\Program Files (x86)\Microchip\xc8\v2.00\pic\include\pic16f887.h"
   306                           CCPR2H equ 01Ch ;# 
   307  001C                     # 1170 "C:\Program Files (x86)\Microchip\xc8\v2.00\pic\include\pic16f887.h"
   308                           CCP2CON equ 01Dh ;# 
   309  001D                     # 1240 "C:\Program Files (x86)\Microchip\xc8\v2.00\pic\include\pic16f887.h"
   310                           ADRESH equ 01Eh ;# 
   311  001E                     # 1247 "C:\Program Files (x86)\Microchip\xc8\v2.00\pic\include\pic16f887.h"
   312                           ADCON0 equ 01Fh ;# 
   313  001F                     # 1348 "C:\Program Files (x86)\Microchip\xc8\v2.00\pic\include\pic16f887.h"
   314                           OPTION_REG equ 081h ;# 
   315  0081                     # 1418 "C:\Program Files (x86)\Microchip\xc8\v2.00\pic\include\pic16f887.h"
   316                           TRISA equ 085h ;# 
   317  0085                     # 1480 "C:\Program Files (x86)\Microchip\xc8\v2.00\pic\include\pic16f887.h"
   318                           TRISB equ 086h ;# 
   319  0086                     # 1542 "C:\Program Files (x86)\Microchip\xc8\v2.00\pic\include\pic16f887.h"
   320                           TRISC equ 087h ;# 
   321  0087                     # 1604 "C:\Program Files (x86)\Microchip\xc8\v2.00\pic\include\pic16f887.h"
   322                           TRISD equ 088h ;# 
   323  0088                     # 1666 "C:\Program Files (x86)\Microchip\xc8\v2.00\pic\include\pic16f887.h"
   324                           TRISE equ 089h ;# 
   325  0089                     # 1704 "C:\Program Files (x86)\Microchip\xc8\v2.00\pic\include\pic16f887.h"
   326                           PIE1 equ 08Ch ;# 
   327  008C                     # 1760 "C:\Program Files (x86)\Microchip\xc8\v2.00\pic\include\pic16f887.h"
   328                           PIE2 equ 08Dh ;# 
   329  008D                     # 1817 "C:\Program Files (x86)\Microchip\xc8\v2.00\pic\include\pic16f887.h"
   330                           PCON equ 08Eh ;# 
   331  008E                     # 1864 "C:\Program Files (x86)\Microchip\xc8\v2.00\pic\include\pic16f887.h"
   332                           OSCCON equ 08Fh ;# 
   333  008F                     # 1929 "C:\Program Files (x86)\Microchip\xc8\v2.00\pic\include\pic16f887.h"
   334                           OSCTUNE equ 090h ;# 
   335  0090                     # 1981 "C:\Program Files (x86)\Microchip\xc8\v2.00\pic\include\pic16f887.h"
   336                           SSPCON2 equ 091h ;# 
   337  0091                     # 2043 "C:\Program Files (x86)\Microchip\xc8\v2.00\pic\include\pic16f887.h"
   338                           PR2 equ 092h ;# 
   339  0092                     # 2050 "C:\Program Files (x86)\Microchip\xc8\v2.00\pic\include\pic16f887.h"
   340                           SSPADD equ 093h ;# 
   341  0093                     # 2057 "C:\Program Files (x86)\Microchip\xc8\v2.00\pic\include\pic16f887.h"
   342                           SSPMSK equ 093h ;# 
   343  0093                     # 2062 "C:\Program Files (x86)\Microchip\xc8\v2.00\pic\include\pic16f887.h"
   344                           MSK equ 093h ;# 
   345  0093                     # 2179 "C:\Program Files (x86)\Microchip\xc8\v2.00\pic\include\pic16f887.h"
   346                           SSPSTAT equ 094h ;# 
   347  0094                     # 2348 "C:\Program Files (x86)\Microchip\xc8\v2.00\pic\include\pic16f887.h"
   348                           WPUB equ 095h ;# 
   349  0095                     # 2418 "C:\Program Files (x86)\Microchip\xc8\v2.00\pic\include\pic16f887.h"
   350                           IOCB equ 096h ;# 
   351  0096                     # 2488 "C:\Program Files (x86)\Microchip\xc8\v2.00\pic\include\pic16f887.h"
   352                           VRCON equ 097h ;# 
   353  0097                     # 2558 "C:\Program Files (x86)\Microchip\xc8\v2.00\pic\include\pic16f887.h"
   354                           TXSTA equ 098h ;# 
   355  0098                     # 2644 "C:\Program Files (x86)\Microchip\xc8\v2.00\pic\include\pic16f887.h"
   356                           SPBRG equ 099h ;# 
   357  0099                     # 2706 "C:\Program Files (x86)\Microchip\xc8\v2.00\pic\include\pic16f887.h"
   358                           SPBRGH equ 09Ah ;# 
   359  009A                     # 2776 "C:\Program Files (x86)\Microchip\xc8\v2.00\pic\include\pic16f887.h"
   360                           PWM1CON equ 09Bh ;# 
   361  009B                     # 2846 "C:\Program Files (x86)\Microchip\xc8\v2.00\pic\include\pic16f887.h"
   362                           ECCPAS equ 09Ch ;# 
   363  009C                     # 2928 "C:\Program Files (x86)\Microchip\xc8\v2.00\pic\include\pic16f887.h"
   364                           PSTRCON equ 09Dh ;# 
   365  009D                     # 2972 "C:\Program Files (x86)\Microchip\xc8\v2.00\pic\include\pic16f887.h"
   366                           ADRESL equ 09Eh ;# 
   367  009E                     # 2979 "C:\Program Files (x86)\Microchip\xc8\v2.00\pic\include\pic16f887.h"
   368                           ADCON1 equ 09Fh ;# 
   369  009F                     # 3013 "C:\Program Files (x86)\Microchip\xc8\v2.00\pic\include\pic16f887.h"
   370                           WDTCON equ 0105h ;# 
   371  0105                     # 3066 "C:\Program Files (x86)\Microchip\xc8\v2.00\pic\include\pic16f887.h"
   372                           CM1CON0 equ 0107h ;# 
   373  0107                     # 3131 "C:\Program Files (x86)\Microchip\xc8\v2.00\pic\include\pic16f887.h"
   374                           CM2CON0 equ 0108h ;# 
   375  0108                     # 3196 "C:\Program Files (x86)\Microchip\xc8\v2.00\pic\include\pic16f887.h"
   376                           CM2CON1 equ 0109h ;# 
   377  0109                     # 3247 "C:\Program Files (x86)\Microchip\xc8\v2.00\pic\include\pic16f887.h"
   378                           EEDATA equ 010Ch ;# 
   379  010C                     # 3252 "C:\Program Files (x86)\Microchip\xc8\v2.00\pic\include\pic16f887.h"
   380                           EEDAT equ 010Ch ;# 
   381  010C                     # 3259 "C:\Program Files (x86)\Microchip\xc8\v2.00\pic\include\pic16f887.h"
   382                           EEADR equ 010Dh ;# 
   383  010D                     # 3266 "C:\Program Files (x86)\Microchip\xc8\v2.00\pic\include\pic16f887.h"
   384                           EEDATH equ 010Eh ;# 
   385  010E                     # 3273 "C:\Program Files (x86)\Microchip\xc8\v2.00\pic\include\pic16f887.h"
   386                           EEADRH equ 010Fh ;# 
   387  010F                     # 3280 "C:\Program Files (x86)\Microchip\xc8\v2.00\pic\include\pic16f887.h"
   388                           SRCON equ 0185h ;# 
   389  0185                     # 3337 "C:\Program Files (x86)\Microchip\xc8\v2.00\pic\include\pic16f887.h"
   390                           BAUDCTL equ 0187h ;# 
   391  0187                     # 3389 "C:\Program Files (x86)\Microchip\xc8\v2.00\pic\include\pic16f887.h"
   392                           ANSEL equ 0188h ;# 
   393  0188                     # 3451 "C:\Program Files (x86)\Microchip\xc8\v2.00\pic\include\pic16f887.h"
   394                           ANSELH equ 0189h ;# 
   395  0189                     # 3501 "C:\Program Files (x86)\Microchip\xc8\v2.00\pic\include\pic16f887.h"
   396                           EECON1 equ 018Ch ;# 
   397  018C                     # 3546 "C:\Program Files (x86)\Microchip\xc8\v2.00\pic\include\pic16f887.h"
   398                           EECON2 equ 018Dh ;# 
   399  018D                     	FNCALL	_main,___wmul
   400                           	FNCALL	_main,_motorPasso
   401                           	FNCALL	_main,_uartIniciar
   402                           	FNCALL	_main,_uartRXC
   403                           	FNCALL	_main,_uartTXC
   404                           	FNCALL	_main,_uartTXT
   405                           	FNCALL	_uartTXT,_uartTXC
   406                           	FNCALL	_motorPasso,___flmul
   407                           	FNCALL	_motorPasso,___fltol
   408                           	FNCALL	_motorPasso,___xxtofl
   409                           	FNCALL	___flmul,__Umul8_16
   410                           	FNROOT	_main
   411                           	global	adcIniciarCanal@F1277
   412                           	global	_matDir
   413                           	global	_matEsq
   414                           psect	idataBANK0,class=CODE,space=0,delta=2,noexec
   415                           global __pidataBANK0
   416                           __pidataBANK0:
   417  0087                     	file	"uart_step.c"
   418                           	line	104
   419                           
   420                           ;initializer for adcIniciarCanal@F1277
   421                           	retlw	086h
   422  0087  3486               	retlw	08Eh
   423  0088  348E               	retlw	082h
   424  0089  3482               	retlw	082h
   425  008A  3482               	retlw	082h
   426  008B  3482               	retlw	082h
   427  008C  3482               	retlw	089h
   428  008D  3489               	retlw	080h
   429  008E  3480               	retlw	080h
   430  008F  3480               	line	190
   431                           
   432                           ;initializer for _matDir
   433                           	retlw	08h
   434  0090  3408               	retlw	04h
   435  0091  3404               	retlw	02h
   436  0092  3402               	retlw	01h
   437  0093  3401               	line	189
   438                           
   439                           ;initializer for _matEsq
   440                           	retlw	01h
   441  0094  3401               	retlw	02h
   442  0095  3402               	retlw	04h
   443  0096  3404               	retlw	08h
   444  0097  3408               	global	_RCREG
   445                           _RCREG	set	0x1A
   446  001A                     	global	_TXREG
   447                           _TXREG	set	0x19
   448  0019                     	global	_RCSTAbits
   449                           _RCSTAbits	set	0x18
   450  0018                     	global	_ADRESH
   451                           _ADRESH	set	0x1E
   452  001E                     	global	_ADCON0bits
   453                           _ADCON0bits	set	0x1F
   454  001F                     	global	_ADCON0
   455                           _ADCON0	set	0x1F
   456  001F                     	global	_PORTA
   457                           _PORTA	set	0x5
   458  0005                     	global	_PIR1bits
   459                           _PIR1bits	set	0xC
   460  000C                     	global	_PORTD
   461                           _PORTD	set	0x8
   462  0008                     	global	_PORTC
   463                           _PORTC	set	0x7
   464  0007                     	global	_PORTBbits
   465                           _PORTBbits	set	0x6
   466  0006                     	global	_PORTB
   467                           _PORTB	set	0x6
   468  0006                     	global	_TRISCbits
   469                           _TRISCbits	set	0x87
   470  0087                     	global	_TXSTAbits
   471                           _TXSTAbits	set	0x98
   472  0098                     	global	_SPBRG
   473                           _SPBRG	set	0x99
   474  0099                     	global	_ADRESL
   475                           _ADRESL	set	0x9E
   476  009E                     	global	_ADCON1
   477                           _ADCON1	set	0x9F
   478  009F                     	global	_PIE1bits
   479                           _PIE1bits	set	0x8C
   480  008C                     	global	_TRISA
   481                           _TRISA	set	0x85
   482  0085                     	global	_TRISD
   483                           _TRISD	set	0x88
   484  0088                     	global	_TRISC
   485                           _TRISC	set	0x87
   486  0087                     	global	_TRISB
   487                           _TRISB	set	0x86
   488  0086                     	global	_ANSELH
   489                           _ANSELH	set	0x189
   490  0189                     psect	strings,class=STRING,delta=2,noexec
   491                           global __pstrings
   492                           __pstrings:
   493  0003                     stringtab:
   494  0003                     	global    __stringtab
   495                           __stringtab:
   496  0003                     ;	String table - string pointers are 1 byte each
   497                           stringcode:stringdir:
   498  0003                     movlw high(stringdir)
      + 0003                     stringdir:	
   499  0003  3000               movwf pclath
   500  0004  008A               movf fsr,w
   501  0005  0804               incf fsr
   502  0006  0A84               	addwf pc
   503  0007  0782               	global __stringbase
   504                           __stringbase:
   505  0008                     	retlw	0
   506  0008  3400               psect	strings
   507                           	global    __end_of__stringtab
   508                           __end_of__stringtab:
   509  0009                     	
   510                           STR_2:	
   511  0009                     	retlw	100	;'d'
   512  0009  3464               	retlw	105	;'i'
   513  000A  3469               	retlw	103	;'g'
   514  000B  3467               	retlw	105	;'i'
   515  000C  3469               	retlw	116	;'t'
   516  000D  3474               	retlw	101	;'e'
   517  000E  3465               	retlw	32	;' '
   518  000F  3420               	retlw	111	;'o'
   519  0010  346F               	retlw	32	;' '
   520  0011  3420               	retlw	97	;'a'
   521  0012  3461               	retlw	110	;'n'
   522  0013  346E               	retlw	103	;'g'
   523  0014  3467               	retlw	117	;'u'
   524  0015  3475               	retlw	108	;'l'
   525  0016  346C               	retlw	111	;'o'
   526  0017  346F               	retlw	58	;':'
   527  0018  343A               	retlw	13
   528  0019  340D               	retlw	10
   529  001A  340A               	retlw	0
   530  001B  3400               psect	strings
   531                           	
   532                           STR_1:	
   533  001C                     	retlw	104	;'h'
   534  001C  3468               	retlw	101	;'e'
   535  001D  3465               	retlw	108	;'l'
   536  001E  346C               	retlw	108	;'l'
   537  001F  346C               	retlw	111	;'o'
   538  0020  346F               	retlw	44	;','
   539  0021  342C               	retlw	119	;'w'
   540  0022  3477               	retlw	111	;'o'
   541  0023  346F               	retlw	114	;'r'
   542  0024  3472               	retlw	108	;'l'
   543  0025  346C               	retlw	100	;'d'
   544  0026  3464               	retlw	33	;'!'
   545  0027  3421               	retlw	13
   546  0028  340D               	retlw	10
   547  0029  340A               	retlw	0
   548  002A  3400               psect	strings
   549                           	
   550                           STR_6:	
   551  002B                     	retlw	109	;'m'
   552  002B  346D               	retlw	111	;'o'
   553  002C  346F               	retlw	116	;'t'
   554  002D  3474               	retlw	111	;'o'
   555  002E  346F               	retlw	114	;'r'
   556  002F  3472               	retlw	32	;' '
   557  0030  3420               	retlw	101	;'e'
   558  0031  3465               	retlw	115	;'s'
   559  0032  3473               	retlw	113	;'q'
   560  0033  3471               	retlw	32	;' '
   561  0034  3420               	retlw	13
   562  0035  340D               	retlw	10
   563  0036  340A               	retlw	0
   564  0037  3400               psect	strings
   565                           	
   566                           STR_7:	
   567  0038                     	retlw	109	;'m'
   568  0038  346D               	retlw	111	;'o'
   569  0039  346F               	retlw	116	;'t'
   570  003A  3474               	retlw	111	;'o'
   571  003B  346F               	retlw	114	;'r'
   572  003C  3472               	retlw	32	;' '
   573  003D  3420               	retlw	100	;'d'
   574  003E  3464               	retlw	105	;'i'
   575  003F  3469               	retlw	114	;'r'
   576  0040  3472               	retlw	32	;' '
   577  0041  3420               	retlw	13
   578  0042  340D               	retlw	10
   579  0043  340A               	retlw	0
   580  0044  3400               psect	strings
   581                           	
   582                           STR_4:	
   583  0045                     	retlw	101	;'e'
   584  0045  3465               	retlw	115	;'s'
   585  0046  3473               	retlw	113	;'q'
   586  0047  3471               	retlw	32	;' '
   587  0048  3420               	retlw	111	;'o'
   588  0049  346F               	retlw	117	;'u'
   589  004A  3475               	retlw	32	;' '
   590  004B  3420               	retlw	100	;'d'
   591  004C  3464               	retlw	105	;'i'
   592  004D  3469               	retlw	114	;'r'
   593  004E  3472               	retlw	0
   594  004F  3400               psect	strings
   595                           STR_3	equ	STR_6+10
   596  0035                     STR_5	equ	STR_6+10
   597  0035                     ; #config settings
   598                           global __CFG_FOSC$HS
   599                           __CFG_FOSC$HS equ 0x0
   600  0000                     global __CFG_WDTE$OFF
   601                           __CFG_WDTE$OFF equ 0x0
   602  0000                     global __CFG_PWRTE$ON
   603                           __CFG_PWRTE$ON equ 0x0
   604  0000                     global __CFG_MCLRE$OFF
   605                           __CFG_MCLRE$OFF equ 0x0
   606  0000                     global __CFG_CP$OFF
   607                           __CFG_CP$OFF equ 0x0
   608  0000                     global __CFG_CPD$OFF
   609                           __CFG_CPD$OFF equ 0x0
   610  0000                     global __CFG_BOREN$OFF
   611                           __CFG_BOREN$OFF equ 0x0
   612  0000                     global __CFG_IESO$OFF
   613                           __CFG_IESO$OFF equ 0x0
   614  0000                     global __CFG_FCMEN$OFF
   615                           __CFG_FCMEN$OFF equ 0x0
   616  0000                     global __CFG_LVP$OFF
   617                           __CFG_LVP$OFF equ 0x0
   618  0000                     global __CFG_BOR4V$BOR40V
   619                           __CFG_BOR4V$BOR40V equ 0x0
   620  0000                     global __CFG_WRT$OFF
   621                           __CFG_WRT$OFF equ 0x0
   622  0000                     	file	"C:\Users\478722~1\AppData\Local\Temp\skok."
   623                           	line	#
   624                           psect cinit,class=CODE,delta=2
   625                           global start_initialization
   626                           start_initialization:
   627  07EE                     
   628                           global __initialization
   629                           __initialization:
   630  07EE                     psect	dataBANK0,class=BANK0,space=1,noexec
   631                           global __pdataBANK0
   632                           __pdataBANK0:
   633  0054                     	file	"uart_step.c"
   634                           	line	104
   635                           adcIniciarCanal@F1277:
   636  0054                            ds      9
   637  0054                     
   638                           psect	dataBANK0
   639                           	file	"uart_step.c"
   640                           	line	190
   641                           _matDir:
   642  005D                            ds      4
   643  005D                     
   644                           psect	dataBANK0
   645                           	file	"uart_step.c"
   646                           	line	189
   647                           _matEsq:
   648  0061                            ds      4
   649  0061                     
   650                           	file	"C:\Users\478722~1\AppData\Local\Temp\skok."
   651                           	line	#
   652                           global btemp
   653                           psect inittext,class=CODE,delta=2
   654                           global init_fetch0,btemp
   655                           ;	Called with low address in FSR and high address in W
   656                           init_fetch0:
   657  00AB                     	movf btemp,w
   658  00AB  087E               	movwf pclath
   659  00AC  008A               	movf btemp+1,w
   660  00AD  087F               	movwf pc
   661  00AE  0082               global init_ram0
   662                           ;Called with:
   663                           ;	high address of idata address in btemp 
   664                           ;	low address of idata address in btemp+1 
   665                           ;	low address of data in FSR
   666                           ;	high address + 1 of data in btemp-1
   667                           init_ram0:
   668  00AF                     	fcall init_fetch0
   669  00AF  120A  118A  20AB  120A  118A  	movwf indf,f
   670  00B4  0080               	incf fsr,f
   671  00B5  0A84               	movf fsr,w
   672  00B6  0804               	xorwf btemp-1,w
   673  00B7  067D               	btfsc status,2
   674  00B8  1903               	retlw 0
   675  00B9  3400               	incf btemp+1,f
   676  00BA  0AFF               	btfsc status,2
   677  00BB  1903               	incf btemp,f
   678  00BC  0AFE               	goto init_ram0
   679  00BD  28AF               ; Initialize objects allocated to BANK0
   680                           psect cinit,class=CODE,delta=2,merge=1
   681                           global init_ram0, __pidataBANK0
   682                           	bcf	status, 7	;select IRP bank0
   683  07EE  1383               	movlw low(__pdataBANK0+17)
   684  07EF  3065               	movwf btemp-1,f
   685  07F0  00FD               	movlw high(__pidataBANK0)
   686  07F1  3000               	movwf btemp,f
   687  07F2  00FE               	movlw low(__pidataBANK0)
   688  07F3  3087               	movwf btemp+1,f
   689  07F4  00FF               	movlw low(__pdataBANK0)
   690  07F5  3054               	movwf fsr,f
   691  07F6  0084               	fcall init_ram0
   692  07F7  120A  118A  20AF  120A  118A  psect cinit,class=CODE,delta=2,merge=1
   693                           global end_of_initialization,__end_of__initialization
   694                           
   695                           ;End of C runtime variable initialization code
   696                           
   697                           end_of_initialization:
   698  07FC                     __end_of__initialization:
   699  07FC                     clrf status
   700  07FC  0183               ljmp _main	;jump to C main() function
   701  07FD  120A  118A  2B27   psect	cstackCOMMON,class=COMMON,space=1,noexec
   702                           global __pcstackCOMMON
   703                           __pcstackCOMMON:
   704  0070                     ?_uartIniciar:	; 1 bytes @ 0x0
   705  0070                     ??_uartIniciar:	; 1 bytes @ 0x0
   706  0070                     ?_uartTXC:	; 1 bytes @ 0x0
   707  0070                     ??_uartTXC:	; 1 bytes @ 0x0
   708  0070                     ?_uartRXC:	; 1 bytes @ 0x0
   709  0070                     ??_uartRXC:	; 1 bytes @ 0x0
   710  0070                     ?_uartTXT:	; 1 bytes @ 0x0
   711  0070                     ?_main:	; 1 bytes @ 0x0
   712  0070                     	global	?__Umul8_16
   713                           ?__Umul8_16:	; 2 bytes @ 0x0
   714  0070                     	global	?___wmul
   715                           ?___wmul:	; 2 bytes @ 0x0
   716  0070                     	global	?___xxtofl
   717                           ?___xxtofl:	; 4 bytes @ 0x0
   718  0070                     	global	uartTXC@dado
   719                           uartTXC@dado:	; 1 bytes @ 0x0
   720  0070                     	global	__Umul8_16@multiplicand
   721                           __Umul8_16@multiplicand:	; 1 bytes @ 0x0
   722  0070                     	global	___wmul@multiplier
   723                           ___wmul@multiplier:	; 2 bytes @ 0x0
   724  0070                     	global	___xxtofl@val
   725                           ___xxtofl@val:	; 4 bytes @ 0x0
   726  0070                     	ds	1
   727  0070                     ??_uartTXT:	; 1 bytes @ 0x1
   728  0071                     	global	uartRXC@tmrOut
   729                           uartRXC@tmrOut:	; 1 bytes @ 0x1
   730  0071                     	ds	1
   731  0071                     ??__Umul8_16:	; 1 bytes @ 0x2
   732  0072                     	global	uartRXC@kTemp
   733                           uartRXC@kTemp:	; 1 bytes @ 0x2
   734  0072                     	global	uartTXT@i
   735                           uartTXT@i:	; 1 bytes @ 0x2
   736  0072                     	global	___wmul@multiplicand
   737                           ___wmul@multiplicand:	; 2 bytes @ 0x2
   738  0072                     	ds	1
   739  0072                     	global	uartRXC@rxValor
   740                           uartRXC@rxValor:	; 1 bytes @ 0x3
   741  0073                     	global	uartTXT@texto
   742                           uartTXT@texto:	; 1 bytes @ 0x3
   743  0073                     	ds	1
   744  0073                     ??___wmul:	; 1 bytes @ 0x4
   745  0074                     ??___xxtofl:	; 1 bytes @ 0x4
   746  0074                     	global	___wmul@product
   747                           ___wmul@product:	; 2 bytes @ 0x4
   748  0074                     	global	__Umul8_16@product
   749                           __Umul8_16@product:	; 2 bytes @ 0x4
   750  0074                     	ds	2
   751  0074                     	global	__Umul8_16@word_mpld
   752                           __Umul8_16@word_mpld:	; 2 bytes @ 0x6
   753  0076                     	ds	2
   754  0076                     	global	___xxtofl@sign
   755                           ___xxtofl@sign:	; 1 bytes @ 0x8
   756  0078                     	global	__Umul8_16@multiplier
   757                           __Umul8_16@multiplier:	; 1 bytes @ 0x8
   758  0078                     	ds	1
   759  0078                     	global	___xxtofl@exp
   760                           ___xxtofl@exp:	; 1 bytes @ 0x9
   761  0079                     	ds	1
   762  0079                     	global	___xxtofl@arg
   763                           ___xxtofl@arg:	; 4 bytes @ 0xA
   764  007A                     	ds	4
   765  007A                     psect	cstackBANK0,class=BANK0,space=1,noexec
   766                           global __pcstackBANK0
   767                           __pcstackBANK0:
   768  0020                     	global	?___flmul
   769                           ?___flmul:	; 4 bytes @ 0x0
   770  0020                     	global	___flmul@b
   771                           ___flmul@b:	; 4 bytes @ 0x0
   772  0020                     	ds	4
   773  0020                     	global	___flmul@a
   774                           ___flmul@a:	; 4 bytes @ 0x4
   775  0024                     	ds	4
   776  0024                     ??___flmul:	; 1 bytes @ 0x8
   777  0028                     	ds	5
   778  0028                     	global	___flmul@sign
   779                           ___flmul@sign:	; 1 bytes @ 0xD
   780  002D                     	ds	1
   781  002D                     	global	___flmul@grs
   782                           ___flmul@grs:	; 4 bytes @ 0xE
   783  002E                     	ds	4
   784  002E                     	global	___flmul@aexp
   785                           ___flmul@aexp:	; 1 bytes @ 0x12
   786  0032                     	ds	1
   787  0032                     	global	___flmul@bexp
   788                           ___flmul@bexp:	; 1 bytes @ 0x13
   789  0033                     	ds	1
   790  0033                     	global	___flmul@prod
   791                           ___flmul@prod:	; 4 bytes @ 0x14
   792  0034                     	ds	4
   793  0034                     	global	___flmul@temp
   794                           ___flmul@temp:	; 2 bytes @ 0x18
   795  0038                     	ds	2
   796  0038                     	global	?___fltol
   797                           ?___fltol:	; 4 bytes @ 0x1A
   798  003A                     	global	___fltol@f1
   799                           ___fltol@f1:	; 4 bytes @ 0x1A
   800  003A                     	ds	4
   801  003A                     ??___fltol:	; 1 bytes @ 0x1E
   802  003E                     	ds	5
   803  003E                     	global	___fltol@sign1
   804                           ___fltol@sign1:	; 1 bytes @ 0x23
   805  0043                     	ds	1
   806  0043                     	global	___fltol@exp1
   807                           ___fltol@exp1:	; 1 bytes @ 0x24
   808  0044                     	ds	1
   809  0044                     ?_motorPasso:	; 1 bytes @ 0x25
   810  0045                     	global	motorPasso@ang
   811                           motorPasso@ang:	; 2 bytes @ 0x25
   812  0045                     	ds	2
   813  0045                     	global	motorPasso@sentido
   814                           motorPasso@sentido:	; 1 bytes @ 0x27
   815  0047                     	ds	1
   816  0047                     ??_motorPasso:	; 1 bytes @ 0x28
   817  0048                     	ds	2
   818  0048                     	global	motorPasso@contar
   819                           motorPasso@contar:	; 2 bytes @ 0x2A
   820  004A                     	ds	2
   821  004A                     ??_main:	; 1 bytes @ 0x2C
   822  004C                     	ds	2
   823  004C                     	global	main@valorBin
   824                           main@valorBin:	; 2 bytes @ 0x2E
   825  004E                     	ds	2
   826  004E                     	global	main@contar
   827                           main@contar:	; 1 bytes @ 0x30
   828  0050                     	ds	1
   829  0050                     	global	main@valor
   830                           main@valor:	; 1 bytes @ 0x31
   831  0051                     	ds	1
   832  0051                     	global	main@ang
   833                           main@ang:	; 2 bytes @ 0x32
   834  0052                     	ds	2
   835  0052                     ;!
   836                           ;!Data Sizes:
   837                           ;!    Strings     71
   838                           ;!    Constant    0
   839                           ;!    Data        17
   840                           ;!    BSS         0
   841                           ;!    Persistent  0
   842                           ;!    Stack       0
   843                           ;!
   844                           ;!Auto Spaces:
   845                           ;!    Space          Size  Autos    Used
   846                           ;!    COMMON           14     14      14
   847                           ;!    BANK0            80     52      69
   848                           ;!    BANK1            80      0       0
   849                           ;!    BANK3            96      0       0
   850                           ;!    BANK2            96      0       0
   851                           
   852                           ;!
   853                           ;!Pointer List with Targets:
   854                           ;!
   855                           ;!    uartTXT@texto	PTR const unsigned char  size(1) Largest target is 19
   856                           ;!		 -> STR_7(CODE[13]), STR_6(CODE[13]), STR_5(CODE[3]), STR_4(CODE[11]), 
   857                           ;!		 -> STR_3(CODE[3]), STR_2(CODE[19]), STR_1(CODE[15]), 
   858                           ;!
   859                           
   860                           
   861                           ;!
   862                           ;!Critical Paths under _main in COMMON
   863                           ;!
   864                           ;!    _uartTXT->_uartTXC
   865                           ;!    _motorPasso->___xxtofl
   866                           ;!    ___fltol->___xxtofl
   867                           ;!    ___flmul->___xxtofl
   868                           ;!
   869                           ;!Critical Paths under _main in BANK0
   870                           ;!
   871                           ;!    _main->_motorPasso
   872                           ;!    _motorPasso->___fltol
   873                           ;!    ___fltol->___flmul
   874                           ;!
   875                           ;!Critical Paths under _main in BANK1
   876                           ;!
   877                           ;!    None.
   878                           ;!
   879                           ;!Critical Paths under _main in BANK3
   880                           ;!
   881                           ;!    None.
   882                           ;!
   883                           ;!Critical Paths under _main in BANK2
   884                           ;!
   885                           ;!    None.
   886                           
   887 ;;
   888 ;;Main: autosize = 0, tempsize = 2, incstack = 0, save=0
   889 ;;
   890                           
   891                           ;!
   892                           ;!Call Graph Tables:
   893                           ;!
   894                           ;! ---------------------------------------------------------------------------------
   895                           ;! (Depth) Function   	        Calls       Base Space   Used Autos Params    Refs
   896                           ;! ---------------------------------------------------------------------------------
   897                           ;! (0) _main                                                 8     8      0    5516
   898                           ;!                                             44 BANK0      8     8      0
   899                           ;!                             ___wmul
   900                           ;!                         _motorPasso
   901                           ;!                        _uartIniciar
   902                           ;!                            _uartRXC
   903                           ;!                            _uartTXC
   904                           ;!                            _uartTXT
   905                           ;! ---------------------------------------------------------------------------------
   906                           ;! (1) _uartTXT                                              3     3      0     343
   907                           ;!                                              1 COMMON     3     3      0
   908                           ;!                            _uartTXC
   909                           ;! ---------------------------------------------------------------------------------
   910                           ;! (2) _uartTXC                                              1     1      0      22
   911                           ;!                                              0 COMMON     1     1      0
   912                           ;! ---------------------------------------------------------------------------------
   913                           ;! (1) _uartRXC                                              4     4      0      49
   914                           ;!                                              0 COMMON     4     4      0
   915                           ;! ---------------------------------------------------------------------------------
   916                           ;! (1) _uartIniciar                                          0     0      0       0
   917                           ;! ---------------------------------------------------------------------------------
   918                           ;! (1) _motorPasso                                           7     4      3    4015
   919                           ;!                                             37 BANK0      7     4      3
   920                           ;!                            ___flmul
   921                           ;!                            ___fltol
   922                           ;!                           ___xxtofl
   923                           ;! ---------------------------------------------------------------------------------
   924                           ;! (2) ___xxtofl                                            14    10      4     474
   925                           ;!                                              0 COMMON    14    10      4
   926                           ;! ---------------------------------------------------------------------------------
   927                           ;! (2) ___fltol                                             11     7      4     381
   928                           ;!                                             26 BANK0     11     7      4
   929                           ;!                            ___flmul (ARG)
   930                           ;!                           ___xxtofl (ARG)
   931                           ;! ---------------------------------------------------------------------------------
   932                           ;! (2) ___flmul                                             26    18      8    2569
   933                           ;!                                              0 BANK0     26    18      8
   934                           ;!                          __Umul8_16
   935                           ;!                           ___xxtofl (ARG)
   936                           ;! ---------------------------------------------------------------------------------
   937                           ;! (3) __Umul8_16                                            9     7      2     799
   938                           ;!                                              0 COMMON     9     7      2
   939                           ;! ---------------------------------------------------------------------------------
   940                           ;! (1) ___wmul                                               6     2      4     548
   941                           ;!                                              0 COMMON     6     2      4
   942                           ;! ---------------------------------------------------------------------------------
   943                           ;! Estimated maximum stack depth 3
   944                           ;! ---------------------------------------------------------------------------------
   945                           ;!
   946                           ;! Call Graph Graphs:
   947                           ;!
   948                           ;! _main (ROOT)
   949                           ;!   ___wmul
   950                           ;!   _motorPasso
   951                           ;!     ___flmul
   952                           ;!       __Umul8_16
   953                           ;!       ___xxtofl (ARG)
   954                           ;!     ___fltol
   955                           ;!       ___flmul (ARG)
   956                           ;!         __Umul8_16
   957                           ;!         ___xxtofl (ARG)
   958                           ;!       ___xxtofl (ARG)
   959                           ;!     ___xxtofl
   960                           ;!   _uartIniciar
   961                           ;!   _uartRXC
   962                           ;!   _uartTXC
   963                           ;!   _uartTXT
   964                           ;!     _uartTXC
   965                           ;!
   966                           
   967                           ;! Address spaces:
   968                           
   969                           ;!Name               Size   Autos  Total    Cost      Usage
   970                           ;!BANK3               60      0       0       9        0.0%
   971                           ;!BITBANK3            60      0       0       8        0.0%
   972                           ;!SFR3                 0      0       0       4        0.0%
   973                           ;!BITSFR3              0      0       0       4        0.0%
   974                           ;!BANK2               60      0       0      11        0.0%
   975                           ;!BITBANK2            60      0       0      10        0.0%
   976                           ;!SFR2                 0      0       0       5        0.0%
   977                           ;!BITSFR2              0      0       0       5        0.0%
   978                           ;!BANK1               50      0       0       7        0.0%
   979                           ;!BITBANK1            50      0       0       6        0.0%
   980                           ;!SFR1                 0      0       0       2        0.0%
   981                           ;!BITSFR1              0      0       0       2        0.0%
   982                           ;!BANK0               50     34      45       5       86.3%
   983                           ;!BITBANK0            50      0       0       4        0.0%
   984                           ;!SFR0                 0      0       0       1        0.0%
   985                           ;!BITSFR0              0      0       0       1        0.0%
   986                           ;!COMMON               E      E       E       1      100.0%
   987                           ;!BITCOMMON            E      0       0       0        0.0%
   988                           ;!CODE                 0      0       0       0        0.0%
   989                           ;!DATA                 0      0      53      12        0.0%
   990                           ;!ABS                  0      0      53       3        0.0%
   991                           ;!NULL                 0      0       0       0        0.0%
   992                           ;!STACK                0      0       0       2        0.0%
   993                           ;!EEDATA             100      0       0       0        0.0%
   994                           
   995                           	global	_main
   996                           
   997 ;; *************** function _main *****************
   998 ;; Defined at:
   999 ;;		line 249 in file "uart_step.c"
  1000 ;; Parameters:    Size  Location     Type
  1001 ;;		None
  1002 ;; Auto vars:     Size  Location     Type
  1003 ;;  ang             2   50[BANK0 ] unsigned int 
  1004 ;;  valorBin        2   46[BANK0 ] unsigned int 
  1005 ;;  valor           1   49[BANK0 ] unsigned char 
  1006 ;;  contar          1   48[BANK0 ] unsigned char 
  1007 ;; Return value:  Size  Location     Type
  1008 ;;                  1    wreg      void 
  1009 ;; Registers used:
  1010 ;;		wreg, fsr0l, fsr0h, status,2, status,0, btemp+1, pclath, cstack
  1011 ;; Tracked objects:
  1012 ;;		On entry : B00/0
  1013 ;;		On exit  : 0/0
  1014 ;;		Unchanged: 0/0
  1015 ;; Data sizes:     COMMON   BANK0   BANK1   BANK3   BANK2
  1016 ;;      Params:         0       0       0       0       0
  1017 ;;      Locals:         0       6       0       0       0
  1018 ;;      Temps:          0       2       0       0       0
  1019 ;;      Totals:         0       8       0       0       0
  1020 ;;Total ram usage:        8 bytes
  1021 ;; Hardware stack levels required when called:    3
  1022 ;; This function calls:
  1023 ;;		___wmul
  1024 ;;		_motorPasso
  1025 ;;		_uartIniciar
  1026 ;;		_uartRXC
  1027 ;;		_uartTXC
  1028 ;;		_uartTXT
  1029 ;; This function is called by:
  1030 ;;		Startup code after reset
  1031 ;; This function uses a non-reentrant model
  1032 ;;
  1033                           psect	maintext,global,class=CODE,delta=2,split=1,group=0
  1034                           	file	"uart_step.c"
  1035                           	line	249
  1036                           global __pmaintext
  1037                           __pmaintext:	;psect for function _main
  1038  0327                     psect	maintext
  1039                           	file	"uart_step.c"
  1040                           	line	249
  1041                           	global	__size_of_main
  1042                           	__size_of_main	equ	__end_of_main-_main
  1043  0152                     	
  1044                           _main:	
  1045  0327                     ;incstack = 0
  1046                           	opt	stack 5
  1047                           ; Regs used in _main: [wreg-fsr0h+status,2+status,0+btemp+1+pclath+cstack]
  1048                           	line	252
  1049                           	
  1050                           l1554:	
  1051  0327                     ;uart_step.c: 252:     uartIniciar();
  1052                           	fcall	_uartIniciar
  1053  0327  120A  118A  2098  120A  118A  	line	253
  1054                           	
  1055                           l1556:	
  1056  032C                     ;uart_step.c: 253:     uartTXT("hello,world!\r\n");
  1057                           	movlw	(low((((STR_1)-__stringbase)|8000h)))&0ffh
  1058  032C  3014               	fcall	_uartTXT
  1059  032D  120A  118A  20E1  120A  118A  	line	256
  1060                           	
  1061                           l1558:	
  1062  0332                     ;uart_step.c: 255:     unsigned int ang;;uart_step.c: 256:     unsigned int valorBin = 0
                                 ;
  1063                           	bcf	status, 5	;RP0=0, select bank0
  1064  0332  1283               	bcf	status, 6	;RP1=0, select bank0
  1065  0333  1303               	clrf	(main@valorBin)
  1066  0334  01CE               	clrf	(main@valorBin+1)
  1067  0335  01CF               	line	257
  1068                           	
  1069                           l1560:	
  1070  0336                     ;uart_step.c: 257:     unsigned char valor, contar=0;
  1071                           	clrf	(main@contar)
  1072  0336  01D0               	line	259
  1073                           	
  1074                           l1562:	
  1075  0337                     ;uart_step.c: 259:     uartTXT("digite o angulo:\r\n");
  1076                           	movlw	(low((((STR_2)-__stringbase)|8000h)))&0ffh
  1077  0337  3001               	fcall	_uartTXT
  1078  0338  120A  118A  20E1  120A  118A  	line	261
  1079                           ;uart_step.c: 261:     while(contar<3)
  1080                           	goto	l1584
  1081  033D  2BB3               	
  1082                           l133:	
  1083  033E                     	line	263
  1084                           	
  1085                           l1564:	
  1086  033E                     ;uart_step.c: 262:     {;uart_step.c: 263:         valor = uartRXC();
  1087                           	fcall	_uartRXC
  1088  033E  120A  118A  20BE  120A  118A  	bcf	status, 5	;RP0=0, select bank0
  1089  0343  1283               	bcf	status, 6	;RP1=0, select bank0
  1090  0344  1303               	movwf	(??_main+0)+0
  1091  0345  00CC               	movf	(??_main+0)+0,w
  1092  0346  084C               	movwf	(main@valor)
  1093  0347  00D1               	line	264
  1094                           	
  1095                           l1566:	
  1096  0348                     ;uart_step.c: 264:         if(valor>='0' && valor <='9')
  1097                           	movlw	low(030h)
  1098  0348  3030               	subwf	(main@valor),w
  1099  0349  0251               	skipc
  1100  034A  1C03               	goto	u1851
  1101  034B  2B4D               	goto	u1850
  1102  034C  2B4E               u1851:
  1103  034D                     	goto	l1584
  1104  034D  2BB3               u1850:
  1105  034E                     	
  1106                           l1568:	
  1107  034E                     	movlw	low(03Ah)
  1108  034E  303A               	subwf	(main@valor),w
  1109  034F  0251               	skipnc
  1110  0350  1803               	goto	u1861
  1111  0351  2B53               	goto	u1860
  1112  0352  2B54               u1861:
  1113  0353                     	goto	l1584
  1114  0353  2BB3               u1860:
  1115  0354                     	line	266
  1116                           	
  1117                           l1570:	
  1118  0354                     ;uart_step.c: 265:         {;uart_step.c: 266:             uartTXC(valor);
  1119                           	movf	(main@valor),w
  1120  0354  0851               	fcall	_uartTXC
  1121  0355  120A  118A  2079  120A  118A  	line	267
  1122                           	
  1123                           l1572:	
  1124  035A                     ;uart_step.c: 267:             if(contar==0)valorBin=(valor-'0')*100;
  1125                           	bcf	status, 5	;RP0=0, select bank0
  1126  035A  1283               	bcf	status, 6	;RP1=0, select bank0
  1127  035B  1303               	movf	((main@contar)),w
  1128  035C  0850               	btfss	status,2
  1129  035D  1D03               	goto	u1871
  1130  035E  2B60               	goto	u1870
  1131  035F  2B61               u1871:
  1132  0360                     	goto	l1576
  1133  0360  2B78               u1870:
  1134  0361                     	
  1135                           l1574:	
  1136  0361                     	movf	(main@valor),w
  1137  0361  0851               	addlw	low(0FFD0h)
  1138  0362  3ED0               	movwf	(___wmul@multiplier)
  1139  0363  00F0               	movlw	high(0FFD0h)
  1140  0364  30FF               	skipnc
  1141  0365  1803               	movlw	(high(0FFD0h)+1)&0ffh
  1142  0366  3000               	movwf	((___wmul@multiplier))+1
  1143  0367  00F1               	movlw	064h
  1144  0368  3064               	movwf	(___wmul@multiplicand)
  1145  0369  00F2               	movlw	0
  1146  036A  3000               	movwf	((___wmul@multiplicand))+1
  1147  036B  00F3               	fcall	___wmul
  1148  036C  120A  118A  2105  120A  118A  	movf	(1+(?___wmul)),w
  1149  0371  0871               	bcf	status, 5	;RP0=0, select bank0
  1150  0372  1283               	bcf	status, 6	;RP1=0, select bank0
  1151  0373  1303               	movwf	(main@valorBin+1)
  1152  0374  00CF               	movf	(0+(?___wmul)),w
  1153  0375  0870               	movwf	(main@valorBin)
  1154  0376  00CE               	goto	l1576
  1155  0377  2B78               	
  1156                           l135:	
  1157  0378                     	line	268
  1158                           	
  1159                           l1576:	
  1160  0378                     ;uart_step.c: 268:             if(contar==1)valorBin=valorBin+(valor-'0')*10;
  1161                           		decf	((main@contar)),w
  1162  0378  0350               	btfss	status,2
  1163  0379  1D03               	goto	u1881
  1164  037A  2B7C               	goto	u1880
  1165  037B  2B7D               u1881:
  1166  037C                     	goto	l1580
  1167  037C  2B98               u1880:
  1168  037D                     	
  1169                           l1578:	
  1170  037D                     	movf	(main@valor),w
  1171  037D  0851               	addlw	low(0FFD0h)
  1172  037E  3ED0               	movwf	(___wmul@multiplier)
  1173  037F  00F0               	movlw	high(0FFD0h)
  1174  0380  30FF               	skipnc
  1175  0381  1803               	movlw	(high(0FFD0h)+1)&0ffh
  1176  0382  3000               	movwf	((___wmul@multiplier))+1
  1177  0383  00F1               	movlw	0Ah
  1178  0384  300A               	movwf	(___wmul@multiplicand)
  1179  0385  00F2               	movlw	0
  1180  0386  3000               	movwf	((___wmul@multiplicand))+1
  1181  0387  00F3               	fcall	___wmul
  1182  0388  120A  118A  2105  120A  118A  	bcf	status, 5	;RP0=0, select bank0
  1183  038D  1283               	bcf	status, 6	;RP1=0, select bank0
  1184  038E  1303               	movf	(main@valorBin),w
  1185  038F  084E               	addwf	(0+(?___wmul)),w
  1186  0390  0770               	movwf	(main@valorBin)
  1187  0391  00CE               	movf	(main@valorBin+1),w
  1188  0392  084F               	skipnc
  1189  0393  1803               	incf	(main@valorBin+1),w
  1190  0394  0A4F               	addwf	(1+(?___wmul)),w
  1191  0395  0771               	movwf	1+(main@valorBin)
  1192  0396  00CF               	goto	l1580
  1193  0397  2B98               	
  1194                           l136:	
  1195  0398                     	line	269
  1196                           	
  1197                           l1580:	
  1198  0398                     ;uart_step.c: 269:             if(contar==2)valorBin=valorBin+(valor-'0');
  1199                           		movlw	2
  1200  0398  3002               	xorwf	((main@contar)),w
  1201  0399  0650               	btfss	status,2
  1202  039A  1D03               	goto	u1891
  1203  039B  2B9D               	goto	u1890
  1204  039C  2B9E               u1891:
  1205  039D                     	goto	l137
  1206  039D  2BAD               u1890:
  1207  039E                     	
  1208                           l1582:	
  1209  039E                     	movf	(main@valor),w
  1210  039E  0851               	addwf	(main@valorBin),w
  1211  039F  074E               	movwf	(??_main+0)+0
  1212  03A0  00CC               	movf	(main@valorBin+1),w
  1213  03A1  084F               	skipnc
  1214  03A2  1803               	incf	(main@valorBin+1),w
  1215  03A3  0A4F               	movwf	((??_main+0)+0)+1
  1216  03A4  00CD               	movf	0+(??_main+0)+0,w
  1217  03A5  084C               	addlw	low(0FFD0h)
  1218  03A6  3ED0               	movwf	(main@valorBin)
  1219  03A7  00CE               	movf	1+(??_main+0)+0,w
  1220  03A8  084D               	skipnc
  1221  03A9  1803               	addlw	1
  1222  03AA  3E01               	addlw	high(0FFD0h)
  1223  03AB  3EFF               	movwf	1+(main@valorBin)
  1224  03AC  00CF               	
  1225                           l137:	
  1226  03AD                     	line	271
  1227                           ;uart_step.c: 271:             contar++;
  1228                           	movlw	low(01h)
  1229  03AD  3001               	movwf	(??_main+0)+0
  1230  03AE  00CC               	movf	(??_main+0)+0,w
  1231  03AF  084C               	addwf	(main@contar),f
  1232  03B0  07D0               	goto	l1584
  1233  03B1  2BB3               	line	273
  1234                           ;uart_step.c: 273:         }
  1235                           	
  1236                           l134:	
  1237  03B2                     	goto	l1584
  1238  03B2  2BB3               	line	275
  1239                           ;uart_step.c: 275:     }
  1240                           	
  1241                           l132:	
  1242  03B3                     	line	261
  1243                           	
  1244                           l1584:	
  1245  03B3                     ;uart_step.c: 261:     while(contar<3)
  1246                           	movlw	low(03h)
  1247  03B3  3003               	bcf	status, 5	;RP0=0, select bank0
  1248  03B4  1283               	bcf	status, 6	;RP1=0, select bank0
  1249  03B5  1303               	subwf	(main@contar),w
  1250  03B6  0250               	skipc
  1251  03B7  1C03               	goto	u1901
  1252  03B8  2BBA               	goto	u1900
  1253  03B9  2BBB               u1901:
  1254  03BA                     	goto	l1564
  1255  03BA  2B3E               u1900:
  1256  03BB                     	goto	l1586
  1257  03BB  2BBC               	
  1258                           l138:	
  1259  03BC                     	line	280
  1260                           	
  1261                           l1586:	
  1262  03BC                     ;uart_step.c: 280:     TRISD = 0,PORTD=0;
  1263                           	bsf	status, 5	;RP0=1, select bank1
  1264  03BC  1683               	bcf	status, 6	;RP1=0, select bank1
  1265  03BD  1303               	clrf	(136)^080h	;volatile
  1266  03BE  0188               	bcf	status, 5	;RP0=0, select bank0
  1267  03BF  1283               	bcf	status, 6	;RP1=0, select bank0
  1268  03C0  1303               	clrf	(8)	;volatile
  1269  03C1  0188               	line	281
  1270                           	
  1271                           l1588:	
  1272  03C2                     ;uart_step.c: 281:     uartTXT("\r\n");
  1273                           	movlw	(low((((STR_3)-__stringbase)|8000h)))&0ffh
  1274  03C2  302D               	fcall	_uartTXT
  1275  03C3  120A  118A  20E1  120A  118A  	line	282
  1276                           	
  1277                           l1590:	
  1278  03C8                     ;uart_step.c: 282:     uartTXT("esq ou dir");
  1279                           	movlw	(low((((STR_4)-__stringbase)|8000h)))&0ffh
  1280  03C8  303D               	fcall	_uartTXT
  1281  03C9  120A  118A  20E1  120A  118A  	line	283
  1282                           ;uart_step.c: 283:     contar = 0;
  1283                           	bcf	status, 5	;RP0=0, select bank0
  1284  03CE  1283               	bcf	status, 6	;RP1=0, select bank0
  1285  03CF  1303               	clrf	(main@contar)
  1286  03D0  01D0               	line	285
  1287                           	
  1288                           l1592:	
  1289  03D1                     ;uart_step.c: 285:     uartTXT("\r\n");
  1290                           	movlw	(low((((STR_5)-__stringbase)|8000h)))&0ffh
  1291  03D1  302D               	fcall	_uartTXT
  1292  03D2  120A  118A  20E1  120A  118A  	line	287
  1293                           ;uart_step.c: 287:     while(contar<1)
  1294                           	goto	l1624
  1295  03D7  2C6E               	
  1296                           l140:	
  1297  03D8                     	line	289
  1298                           	
  1299                           l1594:	
  1300  03D8                     ;uart_step.c: 288:     {;uart_step.c: 289:         ang = uartRXC();
  1301                           	fcall	_uartRXC
  1302  03D8  120A  118A  20BE  120A  118A  	bcf	status, 5	;RP0=0, select bank0
  1303  03DD  1283               	bcf	status, 6	;RP1=0, select bank0
  1304  03DE  1303               	movwf	(??_main+0)+0
  1305  03DF  00CC               	clrf	(??_main+0)+0+1
  1306  03E0  01CD               	movf	0+(??_main+0)+0,w
  1307  03E1  084C               	movwf	(main@ang)
  1308  03E2  00D2               	movf	1+(??_main+0)+0,w
  1309  03E3  084D               	movwf	(main@ang+1)
  1310  03E4  00D3               	line	291
  1311                           	
  1312                           l1596:	
  1313  03E5                     ;uart_step.c: 291:         if(ang>='0' && ang <='1')
  1314                           	movlw	0
  1315  03E5  3000               	subwf	(main@ang+1),w
  1316  03E6  0253               	movlw	030h
  1317  03E7  3030               	skipnz
  1318  03E8  1903               	subwf	(main@ang),w
  1319  03E9  0252               	skipc
  1320  03EA  1C03               	goto	u1911
  1321  03EB  2BED               	goto	u1910
  1322  03EC  2BEE               u1911:
  1323  03ED                     	goto	l1624
  1324  03ED  2C6E               u1910:
  1325  03EE                     	
  1326                           l1598:	
  1327  03EE                     	movlw	0
  1328  03EE  3000               	subwf	(main@ang+1),w
  1329  03EF  0253               	movlw	032h
  1330  03F0  3032               	skipnz
  1331  03F1  1903               	subwf	(main@ang),w
  1332  03F2  0252               	skipnc
  1333  03F3  1803               	goto	u1921
  1334  03F4  2BF6               	goto	u1920
  1335  03F5  2BF7               u1921:
  1336  03F6                     	goto	l1624
  1337  03F6  2C6E               u1920:
  1338  03F7                     	line	293
  1339                           	
  1340                           l1600:	
  1341  03F7                     ;uart_step.c: 292:         {;uart_step.c: 293:           uartTXC(ang);
  1342                           	movf	(main@ang),w
  1343  03F7  0852               	fcall	_uartTXC
  1344  03F8  120A  118A  2079  120A  118A  	line	295
  1345                           	
  1346                           l1602:	
  1347  03FD                     ;uart_step.c: 295:           if(ang==0) valorBin=(ang - 0x30)*100;
  1348                           	bcf	status, 5	;RP0=0, select bank0
  1349  03FD  1283               	bcf	status, 6	;RP1=0, select bank0
  1350  03FE  1303               	movf	((main@ang)),w
  1351  03FF  0852               iorwf	((main@ang+1)),w
  1352  0400  0453               	btfss	status,2
  1353  0401  1D03               	goto	u1931
  1354  0402  2C04               	goto	u1930
  1355  0403  2C05               u1931:
  1356  0404                     	goto	l1606
  1357  0404  2C1D               u1930:
  1358  0405                     	
  1359                           l1604:	
  1360  0405                     	movf	(main@ang),w
  1361  0405  0852               	addlw	low(0FFD0h)
  1362  0406  3ED0               	movwf	(___wmul@multiplier)
  1363  0407  00F0               	movf	(main@ang+1),w
  1364  0408  0853               	skipnc
  1365  0409  1803               	addlw	1
  1366  040A  3E01               	addlw	high(0FFD0h)
  1367  040B  3EFF               	movwf	1+(___wmul@multiplier)
  1368  040C  00F1               	movlw	064h
  1369  040D  3064               	movwf	(___wmul@multiplicand)
  1370  040E  00F2               	movlw	0
  1371  040F  3000               	movwf	((___wmul@multiplicand))+1
  1372  0410  00F3               	fcall	___wmul
  1373  0411  120A  118A  2105  120A  118A  	movf	(1+(?___wmul)),w
  1374  0416  0871               	bcf	status, 5	;RP0=0, select bank0
  1375  0417  1283               	bcf	status, 6	;RP1=0, select bank0
  1376  0418  1303               	movwf	(main@valorBin+1)
  1377  0419  00CF               	movf	(0+(?___wmul)),w
  1378  041A  0870               	movwf	(main@valorBin)
  1379  041B  00CE               	goto	l1606
  1380  041C  2C1D               	
  1381                           l142:	
  1382  041D                     	line	296
  1383                           	
  1384                           l1606:	
  1385  041D                     ;uart_step.c: 296:           if(ang==1) motorPasso(valorBin,1);
  1386                           		decf	((main@ang)),w
  1387  041D  0352               iorwf	((main@ang+1)),w
  1388  041E  0453               	btfss	status,2
  1389  041F  1D03               	goto	u1941
  1390  0420  2C22               	goto	u1940
  1391  0421  2C23               u1941:
  1392  0422                     	goto	l1610
  1393  0422  2C2F               u1940:
  1394  0423                     	
  1395                           l1608:	
  1396  0423                     	movf	(main@valorBin+1),w
  1397  0423  084F               	movwf	(motorPasso@ang+1)
  1398  0424  00C6               	movf	(main@valorBin),w
  1399  0425  084E               	movwf	(motorPasso@ang)
  1400  0426  00C5               	clrf	(motorPasso@sentido)
  1401  0427  01C7               	incf	(motorPasso@sentido),f
  1402  0428  0AC7               	fcall	_motorPasso
  1403  0429  120A  118A  2157  120A  118A  	goto	l1610
  1404  042E  2C2F               	
  1405                           l143:	
  1406  042F                     	line	297
  1407                           	
  1408                           l1610:	
  1409  042F                     ;uart_step.c: 297:           contar++;
  1410                           	movlw	low(01h)
  1411  042F  3001               	bcf	status, 5	;RP0=0, select bank0
  1412  0430  1283               	bcf	status, 6	;RP1=0, select bank0
  1413  0431  1303               	movwf	(??_main+0)+0
  1414  0432  00CC               	movf	(??_main+0)+0,w
  1415  0433  084C               	addwf	(main@contar),f
  1416  0434  07D0               	line	299
  1417                           	
  1418                           l1612:	
  1419  0435                     ;uart_step.c: 299:           if(ang=='0')
  1420                           		movlw	48
  1421  0435  3030               	xorwf	((main@ang)),w
  1422  0436  0652               iorwf	((main@ang+1)),w
  1423  0437  0453               	btfss	status,2
  1424  0438  1D03               	goto	u1951
  1425  0439  2C3B               	goto	u1950
  1426  043A  2C3C               u1951:
  1427  043B                     	goto	l1618
  1428  043B  2C4F               u1950:
  1429  043C                     	line	301
  1430                           	
  1431                           l1614:	
  1432  043C                     ;uart_step.c: 300:           {;uart_step.c: 301:              uartTXT("motor esq \r\n");
                                 
  1433                           	movlw	(low((((STR_6)-__stringbase)|8000h)))&0ffh
  1434  043C  3023               	fcall	_uartTXT
  1435  043D  120A  118A  20E1  120A  118A  	line	302
  1436                           	
  1437                           l1616:	
  1438  0442                     ;uart_step.c: 302:              motorPasso(valorBin,0);
  1439                           	bcf	status, 5	;RP0=0, select bank0
  1440  0442  1283               	bcf	status, 6	;RP1=0, select bank0
  1441  0443  1303               	movf	(main@valorBin+1),w
  1442  0444  084F               	movwf	(motorPasso@ang+1)
  1443  0445  00C6               	movf	(main@valorBin),w
  1444  0446  084E               	movwf	(motorPasso@ang)
  1445  0447  00C5               	clrf	(motorPasso@sentido)
  1446  0448  01C7               	fcall	_motorPasso
  1447  0449  120A  118A  2157  120A  118A  	goto	l1618
  1448  044E  2C4F               	line	303
  1449                           ;uart_step.c: 303:           }
  1450                           	
  1451                           l144:	
  1452  044F                     	line	304
  1453                           	
  1454                           l1618:	
  1455  044F                     ;uart_step.c: 304:           if(ang=='1')
  1456                           		movlw	49
  1457  044F  3031               	bcf	status, 5	;RP0=0, select bank0
  1458  0450  1283               	bcf	status, 6	;RP1=0, select bank0
  1459  0451  1303               	xorwf	((main@ang)),w
  1460  0452  0652               iorwf	((main@ang+1)),w
  1461  0453  0453               	btfss	status,2
  1462  0454  1D03               	goto	u1961
  1463  0455  2C57               	goto	u1960
  1464  0456  2C58               u1961:
  1465  0457                     	goto	l1624
  1466  0457  2C6E               u1960:
  1467  0458                     	line	306
  1468                           	
  1469                           l1620:	
  1470  0458                     ;uart_step.c: 305:           {;uart_step.c: 306:              uartTXT("motor dir \r\n");
                                 
  1471                           	movlw	(low((((STR_7)-__stringbase)|8000h)))&0ffh
  1472  0458  3030               	fcall	_uartTXT
  1473  0459  120A  118A  20E1  120A  118A  	line	307
  1474                           	
  1475                           l1622:	
  1476  045E                     ;uart_step.c: 307:              motorPasso(valorBin,1);
  1477                           	bcf	status, 5	;RP0=0, select bank0
  1478  045E  1283               	bcf	status, 6	;RP1=0, select bank0
  1479  045F  1303               	movf	(main@valorBin+1),w
  1480  0460  084F               	movwf	(motorPasso@ang+1)
  1481  0461  00C6               	movf	(main@valorBin),w
  1482  0462  084E               	movwf	(motorPasso@ang)
  1483  0463  00C5               	clrf	(motorPasso@sentido)
  1484  0464  01C7               	incf	(motorPasso@sentido),f
  1485  0465  0AC7               	fcall	_motorPasso
  1486  0466  120A  118A  2157  120A  118A  	goto	l1624
  1487  046B  2C6E               	line	308
  1488                           ;uart_step.c: 308:           }
  1489                           	
  1490                           l145:	
  1491  046C                     	goto	l1624
  1492  046C  2C6E               	line	310
  1493                           ;uart_step.c: 310:         }
  1494                           	
  1495                           l141:	
  1496  046D                     	goto	l1624
  1497  046D  2C6E               	line	312
  1498                           ;uart_step.c: 312:     }
  1499                           	
  1500                           l139:	
  1501  046E                     	line	287
  1502                           	
  1503                           l1624:	
  1504  046E                     ;uart_step.c: 287:     while(contar<1)
  1505                           	bcf	status, 5	;RP0=0, select bank0
  1506  046E  1283               	bcf	status, 6	;RP1=0, select bank0
  1507  046F  1303               	movf	((main@contar)),w
  1508  0470  0850               	btfsc	status,2
  1509  0471  1903               	goto	u1971
  1510  0472  2C74               	goto	u1970
  1511  0473  2C75               u1971:
  1512  0474                     	goto	l1594
  1513  0474  2BD8               u1970:
  1514  0475                     	goto	l147
  1515  0475  2C76               	
  1516                           l146:	
  1517  0476                     	line	314
  1518                           	
  1519                           l147:	
  1520  0476                     	global	start
  1521                           	ljmp	start
  1522  0476  120A  118A  2800   	opt stack 0
  1523                           GLOBAL	__end_of_main
  1524                           	__end_of_main:
  1525  0479                     	signat	_main,89
  1526                           	global	_uartTXT
  1527                           
  1528 ;; *************** function _uartTXT *****************
  1529 ;; Defined at:
  1530 ;;		line 240 in file "uart_step.c"
  1531 ;; Parameters:    Size  Location     Type
  1532 ;;  texto           1    wreg     PTR const unsigned char 
  1533 ;;		 -> STR_7(13), STR_6(13), STR_5(3), STR_4(11), 
  1534 ;;		 -> STR_3(3), STR_2(19), STR_1(15), 
  1535 ;; Auto vars:     Size  Location     Type
  1536 ;;  texto           1    3[COMMON] PTR const unsigned char 
  1537 ;;		 -> STR_7(13), STR_6(13), STR_5(3), STR_4(11), 
  1538 ;;		 -> STR_3(3), STR_2(19), STR_1(15), 
  1539 ;;  i               1    2[COMMON] unsigned char 
  1540 ;; Return value:  Size  Location     Type
  1541 ;;                  1    wreg      void 
  1542 ;; Registers used:
  1543 ;;		wreg, fsr0l, fsr0h, status,2, status,0, pclath, cstack
  1544 ;; Tracked objects:
  1545 ;;		On entry : 0/0
  1546 ;;		On exit  : 0/0
  1547 ;;		Unchanged: 0/0
  1548 ;; Data sizes:     COMMON   BANK0   BANK1   BANK3   BANK2
  1549 ;;      Params:         0       0       0       0       0
  1550 ;;      Locals:         2       0       0       0       0
  1551 ;;      Temps:          1       0       0       0       0
  1552 ;;      Totals:         3       0       0       0       0
  1553 ;;Total ram usage:        3 bytes
  1554 ;; Hardware stack levels used:    1
  1555 ;; Hardware stack levels required when called:    1
  1556 ;; This function calls:
  1557 ;;		_uartTXC
  1558 ;; This function is called by:
  1559 ;;		_main
  1560 ;; This function uses a non-reentrant model
  1561 ;;
  1562                           psect	text1,local,class=CODE,delta=2,merge=1,group=0
  1563                           	line	240
  1564                           global __ptext1
  1565                           __ptext1:	;psect for function _uartTXT
  1566  00E1                     psect	text1
  1567                           	file	"uart_step.c"
  1568                           	line	240
  1569                           	global	__size_of_uartTXT
  1570                           	__size_of_uartTXT	equ	__end_of_uartTXT-_uartTXT
  1571  0024                     	
  1572                           _uartTXT:	
  1573  00E1                     ;incstack = 0
  1574                           	opt	stack 6
  1575                           ; Regs used in _uartTXT: [wreg-fsr0h+status,2+status,0+pclath+cstack]
  1576                           ;uartTXT@texto stored from wreg
  1577                           	movwf	(uartTXT@texto)
  1578  00E1  00F3               	line	243
  1579                           	
  1580                           l1502:	
  1581  00E2                     ;uart_step.c: 240: void uartTXT(const char *texto);uart_step.c: 241: {;uart_step.c: 242:
                                      unsigned char i;;uart_step.c: 243:     for(i=0;texto[i]!='\0';i++)
  1582                           	clrf	(uartTXT@i)
  1583  00E2  01F2               	goto	l1508
  1584  00E3  28F6               	
  1585                           l125:	
  1586  00E4                     	line	244
  1587                           	
  1588                           l1504:	
  1589  00E4                     ;uart_step.c: 244:     uartTXC(texto[i]);
  1590                           	movf	(uartTXT@i),w
  1591  00E4  0872               	addwf	(uartTXT@texto),w
  1592  00E5  0773               	movwf	fsr0
  1593  00E6  0084               	fcall	stringdir
  1594  00E7  120A  118A  2003  120A  118A  	fcall	_uartTXC
  1595  00EC  120A  118A  2079  120A  118A  	
  1596                           l1506:	
  1597  00F1                     	movlw	low(01h)
  1598  00F1  3001               	movwf	(??_uartTXT+0)+0
  1599  00F2  00F1               	movf	(??_uartTXT+0)+0,w
  1600  00F3  0871               	addwf	(uartTXT@i),f
  1601  00F4  07F2               	goto	l1508
  1602  00F5  28F6               	
  1603                           l124:	
  1604  00F6                     	
  1605                           l1508:	
  1606  00F6                     	movf	(uartTXT@i),w
  1607  00F6  0872               	addwf	(uartTXT@texto),w
  1608  00F7  0773               	movwf	fsr0
  1609  00F8  0084               	fcall	stringdir
  1610  00F9  120A  118A  2003  120A  118A  	xorlw	0
  1611  00FE  3A00               	skipz
  1612  00FF  1D03               	goto	u1751
  1613  0100  2902               	goto	u1750
  1614  0101  2903               u1751:
  1615  0102                     	goto	l1504
  1616  0102  28E4               u1750:
  1617  0103                     	goto	l127
  1618  0103  2904               	
  1619                           l126:	
  1620  0104                     	line	245
  1621                           	
  1622                           l127:	
  1623  0104                     	return
  1624  0104  0008               	opt stack 0
  1625                           GLOBAL	__end_of_uartTXT
  1626                           	__end_of_uartTXT:
  1627  0105                     	signat	_uartTXT,4217
  1628                           	global	_uartTXC
  1629                           
  1630 ;; *************** function _uartTXC *****************
  1631 ;; Defined at:
  1632 ;;		line 217 in file "uart_step.c"
  1633 ;; Parameters:    Size  Location     Type
  1634 ;;  dado            1    wreg     const unsigned char 
  1635 ;; Auto vars:     Size  Location     Type
  1636 ;;  dado            1    0[COMMON] const unsigned char 
  1637 ;; Return value:  Size  Location     Type
  1638 ;;                  1    wreg      void 
  1639 ;; Registers used:
  1640 ;;		wreg
  1641 ;; Tracked objects:
  1642 ;;		On entry : 0/0
  1643 ;;		On exit  : 0/0
  1644 ;;		Unchanged: 0/0
  1645 ;; Data sizes:     COMMON   BANK0   BANK1   BANK3   BANK2
  1646 ;;      Params:         0       0       0       0       0
  1647 ;;      Locals:         1       0       0       0       0
  1648 ;;      Temps:          0       0       0       0       0
  1649 ;;      Totals:         1       0       0       0       0
  1650 ;;Total ram usage:        1 bytes
  1651 ;; Hardware stack levels used:    1
  1652 ;; This function calls:
  1653 ;;		Nothing
  1654 ;; This function is called by:
  1655 ;;		_uartTXT
  1656 ;;		_main
  1657 ;; This function uses a non-reentrant model
  1658 ;;
  1659                           psect	text2,local,class=CODE,delta=2,merge=1,group=0
  1660                           	line	217
  1661                           global __ptext2
  1662                           __ptext2:	;psect for function _uartTXC
  1663  0079                     psect	text2
  1664                           	file	"uart_step.c"
  1665                           	line	217
  1666                           	global	__size_of_uartTXC
  1667                           	__size_of_uartTXC	equ	__end_of_uartTXC-_uartTXC
  1668  000E                     	
  1669                           _uartTXC:	
  1670  0079                     ;incstack = 0
  1671                           	opt	stack 6
  1672                           ; Regs used in _uartTXC: [wreg]
  1673                           ;uartTXC@dado stored from wreg
  1674                           	movwf	(uartTXC@dado)
  1675  0079  00F0               	line	219
  1676                           	
  1677                           l1234:	
  1678  007A                     ;uart_step.c: 217: void uartTXC(const char dado);uart_step.c: 218: {;uart_step.c: 219:  
                                    TXREG = dado;
  1679                           	movf	(uartTXC@dado),w
  1680  007A  0870               	bcf	status, 5	;RP0=0, select bank0
  1681  007B  1283               	bcf	status, 6	;RP1=0, select bank0
  1682  007C  1303               	movwf	(25)	;volatile
  1683  007D  0099               	line	220
  1684                           ;uart_step.c: 220:     while(!TXSTAbits.TRMT);
  1685                           	goto	l110
  1686  007E  287F               	
  1687                           l111:	
  1688  007F                     	
  1689                           l110:	
  1690  007F                     	bsf	status, 5	;RP0=1, select bank1
  1691  007F  1683               	bcf	status, 6	;RP1=0, select bank1
  1692  0080  1303               	btfss	(152)^080h,1	;volatile
  1693  0081  1C98               	goto	u1081
  1694  0082  2884               	goto	u1080
  1695  0083  2885               u1081:
  1696  0084                     	goto	l110
  1697  0084  287F               u1080:
  1698  0085                     	goto	l113
  1699  0085  2886               	
  1700                           l112:	
  1701  0086                     	line	221
  1702                           	
  1703                           l113:	
  1704  0086                     	return
  1705  0086  0008               	opt stack 0
  1706                           GLOBAL	__end_of_uartTXC
  1707                           	__end_of_uartTXC:
  1708  0087                     	signat	_uartTXC,4217
  1709                           	global	_uartRXC
  1710                           
  1711 ;; *************** function _uartRXC *****************
  1712 ;; Defined at:
  1713 ;;		line 223 in file "uart_step.c"
  1714 ;; Parameters:    Size  Location     Type
  1715 ;;		None
  1716 ;; Auto vars:     Size  Location     Type
  1717 ;;  rxValor         1    3[COMMON] unsigned char 
  1718 ;;  kTemp           1    2[COMMON] unsigned char 
  1719 ;;  tmrOut          1    1[COMMON] unsigned char 
  1720 ;; Return value:  Size  Location     Type
  1721 ;;                  1    wreg      unsigned char 
  1722 ;; Registers used:
  1723 ;;		wreg, status,2, status,0
  1724 ;; Tracked objects:
  1725 ;;		On entry : 0/0
  1726 ;;		On exit  : 0/0
  1727 ;;		Unchanged: 0/0
  1728 ;; Data sizes:     COMMON   BANK0   BANK1   BANK3   BANK2
  1729 ;;      Params:         0       0       0       0       0
  1730 ;;      Locals:         3       0       0       0       0
  1731 ;;      Temps:          1       0       0       0       0
  1732 ;;      Totals:         4       0       0       0       0
  1733 ;;Total ram usage:        4 bytes
  1734 ;; Hardware stack levels used:    1
  1735 ;; This function calls:
  1736 ;;		Nothing
  1737 ;; This function is called by:
  1738 ;;		_main
  1739 ;; This function uses a non-reentrant model
  1740 ;;
  1741                           psect	text3,local,class=CODE,delta=2,merge=1,group=0
  1742                           	line	223
  1743                           global __ptext3
  1744                           __ptext3:	;psect for function _uartRXC
  1745  00BE                     psect	text3
  1746                           	file	"uart_step.c"
  1747                           	line	223
  1748                           	global	__size_of_uartRXC
  1749                           	__size_of_uartRXC	equ	__end_of_uartRXC-_uartRXC
  1750  0023                     	
  1751                           _uartRXC:	
  1752  00BE                     ;incstack = 0
  1753                           	opt	stack 7
  1754                           ; Regs used in _uartRXC: [wreg+status,2+status,0]
  1755                           	line	225
  1756                           	
  1757                           l1486:	
  1758  00BE                     ;uart_step.c: 225:  unsigned char tmrOut=0, kTemp=0;
  1759                           	clrf	(uartRXC@tmrOut)
  1760  00BE  01F1               	clrf	(uartRXC@kTemp)
  1761  00BF  01F2               	line	226
  1762                           ;uart_step.c: 226:  unsigned char rxValor=0;
  1763                           	clrf	(uartRXC@rxValor)
  1764  00C0  01F3               	line	227
  1765                           	
  1766                           l1488:	
  1767  00C1                     ;uart_step.c: 227:     if(PIR1bits.RCIF)
  1768                           	bcf	status, 5	;RP0=0, select bank0
  1769  00C1  1283               	bcf	status, 6	;RP1=0, select bank0
  1770  00C2  1303               	btfss	(12),5	;volatile
  1771  00C3  1E8C               	goto	u1721
  1772  00C4  28C6               	goto	u1720
  1773  00C5  28C7               u1721:
  1774  00C6                     	goto	l116
  1775  00C6  28DE               u1720:
  1776  00C7                     	goto	l117
  1777  00C7  28D5               	line	229
  1778                           	
  1779                           l1490:	
  1780  00C8                     ;uart_step.c: 228:  {;uart_step.c: 229:   while(!PIR1bits.RCIF)
  1781                           	goto	l117
  1782  00C8  28D5               	
  1783                           l118:	
  1784  00C9                     	line	231
  1785                           	
  1786                           l1492:	
  1787  00C9                     ;uart_step.c: 230:   {;uart_step.c: 231:    kTemp++;
  1788                           	movlw	low(01h)
  1789  00C9  3001               	movwf	(??_uartRXC+0)+0
  1790  00CA  00F0               	movf	(??_uartRXC+0)+0,w
  1791  00CB  0870               	addwf	(uartRXC@kTemp),f
  1792  00CC  07F2               	line	232
  1793                           	
  1794                           l1494:	
  1795  00CD                     ;uart_step.c: 232:    if (kTemp>100) break;
  1796                           	movlw	low(065h)
  1797  00CD  3065               	subwf	(uartRXC@kTemp),w
  1798  00CE  0272               	skipc
  1799  00CF  1C03               	goto	u1731
  1800  00D0  28D2               	goto	u1730
  1801  00D1  28D3               u1731:
  1802  00D2                     	goto	l117
  1803  00D2  28D5               u1730:
  1804  00D3                     	goto	l1498
  1805  00D3  28DA               	
  1806                           l1496:	
  1807  00D4                     	goto	l1498
  1808  00D4  28DA               	
  1809                           l119:	
  1810  00D5                     	line	233
  1811                           ;uart_step.c: 233:   }
  1812                           	
  1813                           l117:	
  1814  00D5                     	line	229
  1815                           ;uart_step.c: 229:   while(!PIR1bits.RCIF)
  1816                           	btfss	(12),5	;volatile
  1817  00D5  1E8C               	goto	u1741
  1818  00D6  28D8               	goto	u1740
  1819  00D7  28D9               u1741:
  1820  00D8                     	goto	l1492
  1821  00D8  28C9               u1740:
  1822  00D9                     	goto	l1498
  1823  00D9  28DA               	
  1824                           l120:	
  1825  00DA                     	line	234
  1826                           	
  1827                           l1498:	
  1828  00DA                     ;uart_step.c: 234:   rxValor = RCREG;
  1829                           	movf	(26),w	;volatile
  1830  00DA  081A               	movwf	(??_uartRXC+0)+0
  1831  00DB  00F0               	movf	(??_uartRXC+0)+0,w
  1832  00DC  0870               	movwf	(uartRXC@rxValor)
  1833  00DD  00F3               	line	235
  1834                           ;uart_step.c: 235:  }
  1835                           	
  1836                           l116:	
  1837  00DE                     	line	237
  1838                           ;uart_step.c: 237:     return (rxValor);
  1839                           	movf	(uartRXC@rxValor),w
  1840  00DE  0873               	goto	l121
  1841  00DF  28E0               	
  1842                           l1500:	
  1843  00E0                     	line	238
  1844                           	
  1845                           l121:	
  1846  00E0                     	return
  1847  00E0  0008               	opt stack 0
  1848                           GLOBAL	__end_of_uartRXC
  1849                           	__end_of_uartRXC:
  1850  00E1                     	signat	_uartRXC,89
  1851                           	global	_uartIniciar
  1852                           
  1853 ;; *************** function _uartIniciar *****************
  1854 ;; Defined at:
  1855 ;;		line 206 in file "uart_step.c"
  1856 ;; Parameters:    Size  Location     Type
  1857 ;;		None
  1858 ;; Auto vars:     Size  Location     Type
  1859 ;;		None
  1860 ;; Return value:  Size  Location     Type
  1861 ;;                  1    wreg      void 
  1862 ;; Registers used:
  1863 ;;		wreg
  1864 ;; Tracked objects:
  1865 ;;		On entry : 0/0
  1866 ;;		On exit  : 0/0
  1867 ;;		Unchanged: 0/0
  1868 ;; Data sizes:     COMMON   BANK0   BANK1   BANK3   BANK2
  1869 ;;      Params:         0       0       0       0       0
  1870 ;;      Locals:         0       0       0       0       0
  1871 ;;      Temps:          0       0       0       0       0
  1872 ;;      Totals:         0       0       0       0       0
  1873 ;;Total ram usage:        0 bytes
  1874 ;; Hardware stack levels used:    1
  1875 ;; This function calls:
  1876 ;;		Nothing
  1877 ;; This function is called by:
  1878 ;;		_main
  1879 ;; This function uses a non-reentrant model
  1880 ;;
  1881                           psect	text4,local,class=CODE,delta=2,merge=1,group=0
  1882                           	line	206
  1883                           global __ptext4
  1884                           __ptext4:	;psect for function _uartIniciar
  1885  0098                     psect	text4
  1886                           	file	"uart_step.c"
  1887                           	line	206
  1888                           	global	__size_of_uartIniciar
  1889                           	__size_of_uartIniciar	equ	__end_of_uartIniciar-_uartIniciar
  1890  0013                     	
  1891                           _uartIniciar:	
  1892  0098                     ;incstack = 0
  1893                           	opt	stack 7
  1894                           ; Regs used in _uartIniciar: [wreg]
  1895                           	line	208
  1896                           	
  1897                           l1472:	
  1898  0098                     ;uart_step.c: 208:     SPBRG=31;
  1899                           	movlw	low(01Fh)
  1900  0098  301F               	bsf	status, 5	;RP0=1, select bank1
  1901  0099  1683               	bcf	status, 6	;RP1=0, select bank1
  1902  009A  1303               	movwf	(153)^080h	;volatile
  1903  009B  0099               	line	209
  1904                           	
  1905                           l1474:	
  1906  009C                     ;uart_step.c: 209:     TXSTAbits.SYNC=0;
  1907                           	bcf	(152)^080h,4	;volatile
  1908  009C  1218               	line	210
  1909                           	
  1910                           l1476:	
  1911  009D                     ;uart_step.c: 210:     RCSTAbits.SPEN=1;
  1912                           	bcf	status, 5	;RP0=0, select bank0
  1913  009D  1283               	bcf	status, 6	;RP1=0, select bank0
  1914  009E  1303               	bsf	(24),7	;volatile
  1915  009F  1798               	line	211
  1916                           	
  1917                           l1478:	
  1918  00A0                     ;uart_step.c: 211:     TRISCbits.TRISC6=1;
  1919                           	bsf	status, 5	;RP0=1, select bank1
  1920  00A0  1683               	bcf	status, 6	;RP1=0, select bank1
  1921  00A1  1303               	bsf	(135)^080h,6	;volatile
  1922  00A2  1707               	line	212
  1923                           	
  1924                           l1480:	
  1925  00A3                     ;uart_step.c: 212:     TRISCbits.TRISC7=1;
  1926                           	bsf	(135)^080h,7	;volatile
  1927  00A3  1787               	line	213
  1928                           	
  1929                           l1482:	
  1930  00A4                     ;uart_step.c: 213:     RCSTAbits.CREN=1;
  1931                           	bcf	status, 5	;RP0=0, select bank0
  1932  00A4  1283               	bcf	status, 6	;RP1=0, select bank0
  1933  00A5  1303               	bsf	(24),4	;volatile
  1934  00A6  1618               	line	214
  1935                           	
  1936                           l1484:	
  1937  00A7                     ;uart_step.c: 214:     TXSTAbits.TXEN=1;
  1938                           	bsf	status, 5	;RP0=1, select bank1
  1939  00A7  1683               	bcf	status, 6	;RP1=0, select bank1
  1940  00A8  1303               	bsf	(152)^080h,5	;volatile
  1941  00A9  1698               	line	215
  1942                           	
  1943                           l107:	
  1944  00AA                     	return
  1945  00AA  0008               	opt stack 0
  1946                           GLOBAL	__end_of_uartIniciar
  1947                           	__end_of_uartIniciar:
  1948  00AB                     	signat	_uartIniciar,89
  1949                           	global	_motorPasso
  1950                           
  1951 ;; *************** function _motorPasso *****************
  1952 ;; Defined at:
  1953 ;;		line 193 in file "uart_step.c"
  1954 ;; Parameters:    Size  Location     Type
  1955 ;;  ang             2   37[BANK0 ] unsigned int 
  1956 ;;  sentido         1   39[BANK0 ] unsigned char 
  1957 ;; Auto vars:     Size  Location     Type
  1958 ;;  contar          2   42[BANK0 ] unsigned int 
  1959 ;; Return value:  Size  Location     Type
  1960 ;;                  1    wreg      void 
  1961 ;; Registers used:
  1962 ;;		wreg, fsr0l, fsr0h, status,2, status,0, btemp+1, pclath, cstack
  1963 ;; Tracked objects:
  1964 ;;		On entry : 0/0
  1965 ;;		On exit  : 0/0
  1966 ;;		Unchanged: 0/0
  1967 ;; Data sizes:     COMMON   BANK0   BANK1   BANK3   BANK2
  1968 ;;      Params:         0       3       0       0       0
  1969 ;;      Locals:         0       2       0       0       0
  1970 ;;      Temps:          0       2       0       0       0
  1971 ;;      Totals:         0       7       0       0       0
  1972 ;;Total ram usage:        7 bytes
  1973 ;; Hardware stack levels used:    1
  1974 ;; Hardware stack levels required when called:    2
  1975 ;; This function calls:
  1976 ;;		___flmul
  1977 ;;		___fltol
  1978 ;;		___xxtofl
  1979 ;; This function is called by:
  1980 ;;		_main
  1981 ;; This function uses a non-reentrant model
  1982 ;;
  1983                           psect	text5,local,class=CODE,delta=2,merge=1,group=0
  1984                           	line	193
  1985                           global __ptext5
  1986                           __ptext5:	;psect for function _motorPasso
  1987  0157                     psect	text5
  1988                           	file	"uart_step.c"
  1989                           	line	193
  1990                           	global	__size_of_motorPasso
  1991                           	__size_of_motorPasso	equ	__end_of_motorPasso-_motorPasso
  1992  0072                     	
  1993                           _motorPasso:	
  1994  0157                     ;incstack = 0
  1995                           	opt	stack 5
  1996                           ; Regs used in _motorPasso: [wreg-fsr0h+status,2+status,0+btemp+1+pclath+cstack]
  1997                           	line	196
  1998                           	
  1999                           l1456:	
  2000  0157                     ;uart_step.c: 193: void motorPasso(unsigned int ang, char sentido);uart_step.c: 194: {;u
                                 art_step.c: 195:     unsigned int contar;;uart_step.c: 196:     ang = ang * 5.6889;
  2001                           	bcf	status, 5	;RP0=0, select bank0
  2002  0157  1283               	bcf	status, 6	;RP1=0, select bank0
  2003  0158  1303               	movf	(motorPasso@ang),w
  2004  0159  0845               	movwf	(___xxtofl@val)
  2005  015A  00F0               	movf	(motorPasso@ang+1),w
  2006  015B  0846               	movwf	((___xxtofl@val))+1
  2007  015C  00F1               	clrf	2+((___xxtofl@val))
  2008  015D  01F2               	clrf	3+((___xxtofl@val))
  2009  015E  01F3               	movlw	low(0)
  2010  015F  3000               	fcall	___xxtofl
  2011  0160  120A  118A  2265  120A  118A  	movf	(3+(?___xxtofl)),w
  2012  0165  0873               	bcf	status, 5	;RP0=0, select bank0
  2013  0166  1283               	bcf	status, 6	;RP1=0, select bank0
  2014  0167  1303               	movwf	(___flmul@a+3)
  2015  0168  00A7               	movf	(2+(?___xxtofl)),w
  2016  0169  0872               	movwf	(___flmul@a+2)
  2017  016A  00A6               	movf	(1+(?___xxtofl)),w
  2018  016B  0871               	movwf	(___flmul@a+1)
  2019  016C  00A5               	movf	(0+(?___xxtofl)),w
  2020  016D  0870               	movwf	(___flmul@a)
  2021  016E  00A4               
  2022                           	movlw	0x40
  2023  016F  3040               	movwf	(___flmul@b+3)
  2024  0170  00A3               	movlw	0xb6
  2025  0171  30B6               	movwf	(___flmul@b+2)
  2026  0172  00A2               	movlw	0xb
  2027  0173  300B               	movwf	(___flmul@b+1)
  2028  0174  00A1               	movlw	0x78
  2029  0175  3078               	movwf	(___flmul@b)
  2030  0176  00A0               
  2031                           	fcall	___flmul
  2032  0177  120A  118A  2479  120A  118A  	bcf	status, 5	;RP0=0, select bank0
  2033  017C  1283               	bcf	status, 6	;RP1=0, select bank0
  2034  017D  1303               	movf	(3+(?___flmul)),w
  2035  017E  0823               	movwf	(___fltol@f1+3)
  2036  017F  00BD               	movf	(2+(?___flmul)),w
  2037  0180  0822               	movwf	(___fltol@f1+2)
  2038  0181  00BC               	movf	(1+(?___flmul)),w
  2039  0182  0821               	movwf	(___fltol@f1+1)
  2040  0183  00BB               	movf	(0+(?___flmul)),w
  2041  0184  0820               	movwf	(___fltol@f1)
  2042  0185  00BA               
  2043                           	fcall	___fltol
  2044  0186  120A  118A  21C9  120A  118A  	bcf	status, 5	;RP0=0, select bank0
  2045  018B  1283               	bcf	status, 6	;RP1=0, select bank0
  2046  018C  1303               	movf	(1+(?___fltol)),w
  2047  018D  083B               	movwf	(motorPasso@ang+1)
  2048  018E  00C6               	movf	(0+(?___fltol)),w
  2049  018F  083A               	movwf	(motorPasso@ang)
  2050  0190  00C5               	line	197
  2051                           	
  2052                           l1458:	
  2053  0191                     ;uart_step.c: 197:     for(contar=0;contar<ang;contar++)
  2054                           	clrf	(motorPasso@contar)
  2055  0191  01CA               	clrf	(motorPasso@contar+1)
  2056  0192  01CB               	goto	l1470
  2057  0193  29BD               	
  2058                           l100:	
  2059  0194                     	line	199
  2060                           	
  2061                           l1460:	
  2062  0194                     ;uart_step.c: 198:     {;uart_step.c: 199:         if(sentido)PORTD=matDir[contar%4];
  2063                           	movf	((motorPasso@sentido)),w
  2064  0194  0847               	btfsc	status,2
  2065  0195  1903               	goto	u1701
  2066  0196  2998               	goto	u1700
  2067  0197  2999               u1701:
  2068  0198                     	goto	l1464
  2069  0198  29A1               u1700:
  2070  0199                     	
  2071                           l1462:	
  2072  0199                     	movf	(motorPasso@contar),w
  2073  0199  084A               	andlw	03h
  2074  019A  3903               	addlw	low(_matDir|((0x0)<<8))&0ffh
  2075  019B  3E5D               	movwf	fsr0
  2076  019C  0084               	bcf	status, 7	;select IRP bank0
  2077  019D  1383               	movf	indf,w
  2078  019E  0800               	movwf	(8)	;volatile
  2079  019F  0088               	goto	l1466
  2080  01A0  29A9               	line	200
  2081                           ;uart_step.c: 200:         else PORTD=matEsq[contar%4];
  2082                           	
  2083                           l101:	
  2084  01A1                     	
  2085                           l1464:	
  2086  01A1                     	movf	(motorPasso@contar),w
  2087  01A1  084A               	andlw	03h
  2088  01A2  3903               	addlw	low(_matEsq|((0x0)<<8))&0ffh
  2089  01A3  3E61               	movwf	fsr0
  2090  01A4  0084               	bcf	status, 7	;select IRP bank0
  2091  01A5  1383               	movf	indf,w
  2092  01A6  0800               	movwf	(8)	;volatile
  2093  01A7  0088               	goto	l1466
  2094  01A8  29A9               	
  2095                           l102:	
  2096  01A9                     	line	201
  2097                           	
  2098                           l1466:	
  2099  01A9                     ;uart_step.c: 201:         _delay((unsigned long)((10)*(20000000/4000.0)));
  2100                           	opt asmopt_push
  2101                           opt asmopt_off
  2102                           movlw	65
  2103  01A9  3041               	bcf	status, 5	;RP0=0, select bank0
  2104  01AA  1283               	bcf	status, 6	;RP1=0, select bank0
  2105  01AB  1303               movwf	((??_motorPasso+0)+0+1),f
  2106  01AC  00C9               	movlw	237
  2107  01AD  30ED               movwf	((??_motorPasso+0)+0),f
  2108  01AE  00C8               	u1987:
  2109  01AF                     decfsz	((??_motorPasso+0)+0),f
  2110  01AF  0BC8               	goto	u1987
  2111  01B0  29AF               	decfsz	((??_motorPasso+0)+0+1),f
  2112  01B1  0BC9               	goto	u1987
  2113  01B2  29AF               	nop2
  2114  01B3  29B4               opt asmopt_pop
  2115                           
  2116                           	line	202
  2117                           	
  2118                           l1468:	
  2119  01B4                     ;uart_step.c: 202:     }
  2120                           	movlw	01h
  2121  01B4  3001               	bcf	status, 5	;RP0=0, select bank0
  2122  01B5  1283               	bcf	status, 6	;RP1=0, select bank0
  2123  01B6  1303               	addwf	(motorPasso@contar),f
  2124  01B7  07CA               	skipnc
  2125  01B8  1803               	incf	(motorPasso@contar+1),f
  2126  01B9  0ACB               	movlw	0
  2127  01BA  3000               	addwf	(motorPasso@contar+1),f
  2128  01BB  07CB               	goto	l1470
  2129  01BC  29BD               	
  2130                           l99:	
  2131  01BD                     	
  2132                           l1470:	
  2133  01BD                     	movf	(motorPasso@ang+1),w
  2134  01BD  0846               	subwf	(motorPasso@contar+1),w
  2135  01BE  024B               	skipz
  2136  01BF  1D03               	goto	u1715
  2137  01C0  29C3               	movf	(motorPasso@ang),w
  2138  01C1  0845               	subwf	(motorPasso@contar),w
  2139  01C2  024A               u1715:
  2140  01C3                     	skipc
  2141  01C3  1C03               	goto	u1711
  2142  01C4  29C6               	goto	u1710
  2143  01C5  29C7               u1711:
  2144  01C6                     	goto	l1460
  2145  01C6  2994               u1710:
  2146  01C7                     	goto	l104
  2147  01C7  29C8               	
  2148                           l103:	
  2149  01C8                     	line	203
  2150                           	
  2151                           l104:	
  2152  01C8                     	return
  2153  01C8  0008               	opt stack 0
  2154                           GLOBAL	__end_of_motorPasso
  2155                           	__end_of_motorPasso:
  2156  01C9                     	signat	_motorPasso,8313
  2157                           	global	___xxtofl
  2158                           
  2159 ;; *************** function ___xxtofl *****************
  2160 ;; Defined at:
  2161 ;;		line 10 in file "C:\Program Files (x86)\Microchip\xc8\v2.00\pic\sources\c90\common\xxtofl.c"
  2162 ;; Parameters:    Size  Location     Type
  2163 ;;  sign            1    wreg     unsigned char 
  2164 ;;  val             4    0[COMMON] long 
  2165 ;; Auto vars:     Size  Location     Type
  2166 ;;  sign            1    8[COMMON] unsigned char 
  2167 ;;  arg             4   10[COMMON] unsigned long 
  2168 ;;  exp             1    9[COMMON] unsigned char 
  2169 ;; Return value:  Size  Location     Type
  2170 ;;                  4    0[COMMON] unsigned char 
  2171 ;; Registers used:
  2172 ;;		wreg, status,2, status,0
  2173 ;; Tracked objects:
  2174 ;;		On entry : 0/0
  2175 ;;		On exit  : 0/0
  2176 ;;		Unchanged: 0/0
  2177 ;; Data sizes:     COMMON   BANK0   BANK1   BANK3   BANK2
  2178 ;;      Params:         4       0       0       0       0
  2179 ;;      Locals:         6       0       0       0       0
  2180 ;;      Temps:          4       0       0       0       0
  2181 ;;      Totals:        14       0       0       0       0
  2182 ;;Total ram usage:       14 bytes
  2183 ;; Hardware stack levels used:    1
  2184 ;; This function calls:
  2185 ;;		Nothing
  2186 ;; This function is called by:
  2187 ;;		_motorPasso
  2188 ;;		_celsius
  2189 ;; This function uses a non-reentrant model
  2190 ;;
  2191                           psect	text6,local,class=CODE,delta=2,merge=1,group=1
  2192                           	file	"C:\Program Files (x86)\Microchip\xc8\v2.00\pic\sources\c90\common\xxtofl.c"
  2193                           	line	10
  2194                           global __ptext6
  2195                           __ptext6:	;psect for function ___xxtofl
  2196  0265                     psect	text6
  2197                           	file	"C:\Program Files (x86)\Microchip\xc8\v2.00\pic\sources\c90\common\xxtofl.c"
  2198                           	line	10
  2199                           	global	__size_of___xxtofl
  2200                           	__size_of___xxtofl	equ	__end_of___xxtofl-___xxtofl
  2201  00C2                     	
  2202                           ___xxtofl:	
  2203  0265                     ;incstack = 0
  2204                           	opt	stack 6
  2205                           ; Regs used in ___xxtofl: [wreg+status,2+status,0]
  2206                           ;___xxtofl@sign stored from wreg
  2207                           	movwf	(___xxtofl@sign)
  2208  0265  00F8               	line	15
  2209                           	
  2210                           l1412:	
  2211  0266                     	movf	((___xxtofl@sign)),w
  2212  0266  0878               	btfsc	status,2
  2213  0267  1903               	goto	u1561
  2214  0268  2A6A               	goto	u1560
  2215  0269  2A6B               u1561:
  2216  026A                     	goto	l1418
  2217  026A  2A7F               u1560:
  2218  026B                     	
  2219                           l1414:	
  2220  026B                     	btfss	(___xxtofl@val+3),7
  2221  026B  1FF3               	goto	u1571
  2222  026C  2A6E               	goto	u1570
  2223  026D  2A6F               u1571:
  2224  026E                     	goto	l1418
  2225  026E  2A7F               u1570:
  2226  026F                     	line	16
  2227                           	
  2228                           l1416:	
  2229  026F                     	comf	(___xxtofl@val)+0,w
  2230  026F  0970               	movwf	(___xxtofl@arg)
  2231  0270  00FA               	comf	(___xxtofl@val)+1,w
  2232  0271  0971               	movwf	(___xxtofl@arg+1)
  2233  0272  00FB               	comf	(___xxtofl@val)+2,w
  2234  0273  0972               	movwf	(___xxtofl@arg+2)
  2235  0274  00FC               	comf	(___xxtofl@val)+3,w
  2236  0275  0973               	movwf	(___xxtofl@arg+3)
  2237  0276  00FD               	incf	(___xxtofl@arg),f
  2238  0277  0AFA               	skipnz
  2239  0278  1903               	incf	(___xxtofl@arg+1),f
  2240  0279  0AFB               	skipnz
  2241  027A  1903               	incf	(___xxtofl@arg+2),f
  2242  027B  0AFC               	skipnz
  2243  027C  1903               	incf	(___xxtofl@arg+3),f
  2244  027D  0AFD               	line	17
  2245                           	goto	l641
  2246  027E  2A87               	line	18
  2247                           	
  2248                           l640:	
  2249  027F                     	line	19
  2250                           	
  2251                           l1418:	
  2252  027F                     	movf	(___xxtofl@val+3),w
  2253  027F  0873               	movwf	(___xxtofl@arg+3)
  2254  0280  00FD               	movf	(___xxtofl@val+2),w
  2255  0281  0872               	movwf	(___xxtofl@arg+2)
  2256  0282  00FC               	movf	(___xxtofl@val+1),w
  2257  0283  0871               	movwf	(___xxtofl@arg+1)
  2258  0284  00FB               	movf	(___xxtofl@val),w
  2259  0285  0870               	movwf	(___xxtofl@arg)
  2260  0286  00FA               
  2261                           	line	20
  2262                           	
  2263                           l641:	
  2264  0287                     	line	21
  2265                           	movf	(___xxtofl@val+3),w
  2266  0287  0873               	iorwf	(___xxtofl@val+2),w
  2267  0288  0472               	iorwf	(___xxtofl@val+1),w
  2268  0289  0471               	iorwf	(___xxtofl@val),w
  2269  028A  0470               	skipz
  2270  028B  1D03               	goto	u1581
  2271  028C  2A8E               	goto	u1580
  2272  028D  2A8F               u1581:
  2273  028E                     	goto	l1424
  2274  028E  2A99               u1580:
  2275  028F                     	line	22
  2276                           	
  2277                           l1420:	
  2278  028F                     	movlw	0x0
  2279  028F  3000               	movwf	(?___xxtofl+3)
  2280  0290  00F3               	movlw	0x0
  2281  0291  3000               	movwf	(?___xxtofl+2)
  2282  0292  00F2               	movlw	0x0
  2283  0293  3000               	movwf	(?___xxtofl+1)
  2284  0294  00F1               	movlw	0x0
  2285  0295  3000               	movwf	(?___xxtofl)
  2286  0296  00F0               
  2287                           	goto	l643
  2288  0297  2B26               	
  2289                           l1422:	
  2290  0298                     	goto	l643
  2291  0298  2B26               	
  2292                           l642:	
  2293  0299                     	line	23
  2294                           	
  2295                           l1424:	
  2296  0299                     	movlw	low(096h)
  2297  0299  3096               	movwf	(??___xxtofl+0)+0
  2298  029A  00F4               	movf	(??___xxtofl+0)+0,w
  2299  029B  0874               	movwf	(___xxtofl@exp)
  2300  029C  00F9               	line	24
  2301                           	goto	l1428
  2302  029D  2AAC               	
  2303                           l645:	
  2304  029E                     	line	25
  2305                           	
  2306                           l1426:	
  2307  029E                     	movlw	low(01h)
  2308  029E  3001               	movwf	(??___xxtofl+0)+0
  2309  029F  00F4               	movf	(??___xxtofl+0)+0,w
  2310  02A0  0874               	addwf	(___xxtofl@exp),f
  2311  02A1  07F9               	line	26
  2312                           	movlw	01h
  2313  02A2  3001               u1595:
  2314  02A3                     	clrc
  2315  02A3  1003               	rrf	(___xxtofl@arg+3),f
  2316  02A4  0CFD               	rrf	(___xxtofl@arg+2),f
  2317  02A5  0CFC               	rrf	(___xxtofl@arg+1),f
  2318  02A6  0CFB               	rrf	(___xxtofl@arg),f
  2319  02A7  0CFA               	addlw	-1
  2320  02A8  3EFF               	skipz
  2321  02A9  1D03               	goto	u1595
  2322  02AA  2AA3               
  2323                           	goto	l1428
  2324  02AB  2AAC               	line	27
  2325                           	
  2326                           l644:	
  2327  02AC                     	line	24
  2328                           	
  2329                           l1428:	
  2330  02AC                     	movlw	high highword(0FE000000h)
  2331  02AC  30FE               	andwf	(___xxtofl@arg+3),w
  2332  02AD  057D               	btfss	status,2
  2333  02AE  1D03               	goto	u1601
  2334  02AF  2AB1               	goto	u1600
  2335  02B0  2AB2               u1601:
  2336  02B1                     	goto	l1426
  2337  02B1  2A9E               u1600:
  2338  02B2                     	goto	l647
  2339  02B2  2ACF               	
  2340                           l646:	
  2341  02B3                     	line	28
  2342                           	goto	l647
  2343  02B3  2ACF               	
  2344                           l648:	
  2345  02B4                     	line	29
  2346                           	
  2347                           l1430:	
  2348  02B4                     	movlw	low(01h)
  2349  02B4  3001               	movwf	(??___xxtofl+0)+0
  2350  02B5  00F4               	movf	(??___xxtofl+0)+0,w
  2351  02B6  0874               	addwf	(___xxtofl@exp),f
  2352  02B7  07F9               	line	30
  2353                           	
  2354                           l1432:	
  2355  02B8                     	movlw	01h
  2356  02B8  3001               	addwf	(___xxtofl@arg),f
  2357  02B9  07FA               	movlw	0
  2358  02BA  3000               	skipnc
  2359  02BB  1803               movlw 1
  2360  02BC  3001               	addwf	(___xxtofl@arg+1),f
  2361  02BD  07FB               	movlw	0
  2362  02BE  3000               	skipnc
  2363  02BF  1803               movlw 1
  2364  02C0  3001               	addwf	(___xxtofl@arg+2),f
  2365  02C1  07FC               	movlw	0
  2366  02C2  3000               	skipnc
  2367  02C3  1803               movlw 1
  2368  02C4  3001               	addwf	(___xxtofl@arg+3),f
  2369  02C5  07FD               	line	31
  2370                           	
  2371                           l1434:	
  2372  02C6                     	movlw	01h
  2373  02C6  3001               u1615:
  2374  02C7                     	clrc
  2375  02C7  1003               	rrf	(___xxtofl@arg+3),f
  2376  02C8  0CFD               	rrf	(___xxtofl@arg+2),f
  2377  02C9  0CFC               	rrf	(___xxtofl@arg+1),f
  2378  02CA  0CFB               	rrf	(___xxtofl@arg),f
  2379  02CB  0CFA               	addlw	-1
  2380  02CC  3EFF               	skipz
  2381  02CD  1D03               	goto	u1615
  2382  02CE  2AC7               
  2383                           	line	32
  2384                           	
  2385                           l647:	
  2386  02CF                     	line	28
  2387                           	movlw	high highword(0FF000000h)
  2388  02CF  30FF               	andwf	(___xxtofl@arg+3),w
  2389  02D0  057D               	btfss	status,2
  2390  02D1  1D03               	goto	u1621
  2391  02D2  2AD4               	goto	u1620
  2392  02D3  2AD5               u1621:
  2393  02D4                     	goto	l1430
  2394  02D4  2AB4               u1620:
  2395  02D5                     	goto	l1438
  2396  02D5  2AE3               	
  2397                           l649:	
  2398  02D6                     	line	33
  2399                           	goto	l1438
  2400  02D6  2AE3               	
  2401                           l651:	
  2402  02D7                     	line	34
  2403                           	
  2404                           l1436:	
  2405  02D7                     	movlw	01h
  2406  02D7  3001               	subwf	(___xxtofl@exp),f
  2407  02D8  02F9               	line	35
  2408                           	movlw	01h
  2409  02D9  3001               	movwf	(??___xxtofl+0)+0
  2410  02DA  00F4               u1635:
  2411  02DB                     	clrc
  2412  02DB  1003               	rlf	(___xxtofl@arg),f
  2413  02DC  0DFA               	rlf	(___xxtofl@arg+1),f
  2414  02DD  0DFB               	rlf	(___xxtofl@arg+2),f
  2415  02DE  0DFC               	rlf	(___xxtofl@arg+3),f
  2416  02DF  0DFD               	decfsz	(??___xxtofl+0)+0
  2417  02E0  0BF4               	goto	u1635
  2418  02E1  2ADB               	goto	l1438
  2419  02E2  2AE3               	line	36
  2420                           	
  2421                           l650:	
  2422  02E3                     	line	33
  2423                           	
  2424                           l1438:	
  2425  02E3                     	btfsc	(___xxtofl@arg+2),(23)&7
  2426  02E3  1BFC               	goto	u1641
  2427  02E4  2AE6               	goto	u1640
  2428  02E5  2AE7               u1641:
  2429  02E6                     	goto	l654
  2430  02E6  2AEE               u1640:
  2431  02E7                     	
  2432                           l1440:	
  2433  02E7                     	movlw	low(02h)
  2434  02E7  3002               	subwf	(___xxtofl@exp),w
  2435  02E8  0279               	skipnc
  2436  02E9  1803               	goto	u1651
  2437  02EA  2AEC               	goto	u1650
  2438  02EB  2AED               u1651:
  2439  02EC                     	goto	l1436
  2440  02EC  2AD7               u1650:
  2441  02ED                     	goto	l654
  2442  02ED  2AEE               	
  2443                           l653:	
  2444  02EE                     	
  2445                           l654:	
  2446  02EE                     	line	37
  2447                           	btfsc	(___xxtofl@exp),(0)&7
  2448  02EE  1879               	goto	u1661
  2449  02EF  2AF1               	goto	u1660
  2450  02F0  2AF2               u1661:
  2451  02F1                     	goto	l655
  2452  02F1  2AFA               u1660:
  2453  02F2                     	line	38
  2454                           	
  2455                           l1442:	
  2456  02F2                     	movlw	0FFh
  2457  02F2  30FF               	andwf	(___xxtofl@arg),f
  2458  02F3  05FA               	movlw	0FFh
  2459  02F4  30FF               	andwf	(___xxtofl@arg+1),f
  2460  02F5  05FB               	movlw	07Fh
  2461  02F6  307F               	andwf	(___xxtofl@arg+2),f
  2462  02F7  05FC               	movlw	0FFh
  2463  02F8  30FF               	andwf	(___xxtofl@arg+3),f
  2464  02F9  05FD               	
  2465                           l655:	
  2466  02FA                     	line	39
  2467                           	clrc
  2468  02FA  1003               	rrf	(___xxtofl@exp),f
  2469  02FB  0CF9               
  2470                           	line	40
  2471                           	
  2472                           l1444:	
  2473  02FC                     	movf	(___xxtofl@exp),w
  2474  02FC  0879               	movwf	(??___xxtofl+0)+0
  2475  02FD  00F4               	clrf	(??___xxtofl+0)+0+1
  2476  02FE  01F5               	clrf	(??___xxtofl+0)+0+2
  2477  02FF  01F6               	clrf	(??___xxtofl+0)+0+3
  2478  0300  01F7               	movlw	018h
  2479  0301  3018               u1675:
  2480  0302                     	clrc
  2481  0302  1003               	rlf	(??___xxtofl+0)+0,f
  2482  0303  0DF4               	rlf	(??___xxtofl+0)+1,f
  2483  0304  0DF5               	rlf	(??___xxtofl+0)+2,f
  2484  0305  0DF6               	rlf	(??___xxtofl+0)+3,f
  2485  0306  0DF7               u1670:
  2486  0307                     	addlw	-1
  2487  0307  3EFF               	skipz
  2488  0308  1D03               	goto	u1675
  2489  0309  2B02               	movf	0+(??___xxtofl+0)+0,w
  2490  030A  0874               	iorwf	(___xxtofl@arg),f
  2491  030B  04FA               	movf	1+(??___xxtofl+0)+0,w
  2492  030C  0875               	iorwf	(___xxtofl@arg+1),f
  2493  030D  04FB               	movf	2+(??___xxtofl+0)+0,w
  2494  030E  0876               	iorwf	(___xxtofl@arg+2),f
  2495  030F  04FC               	movf	3+(??___xxtofl+0)+0,w
  2496  0310  0877               	iorwf	(___xxtofl@arg+3),f
  2497  0311  04FD               	line	41
  2498                           	
  2499                           l1446:	
  2500  0312                     	movf	((___xxtofl@sign)),w
  2501  0312  0878               	btfsc	status,2
  2502  0313  1903               	goto	u1681
  2503  0314  2B16               	goto	u1680
  2504  0315  2B17               u1681:
  2505  0316                     	goto	l1452
  2506  0316  2B1D               u1680:
  2507  0317                     	
  2508                           l1448:	
  2509  0317                     	btfss	(___xxtofl@val+3),7
  2510  0317  1FF3               	goto	u1691
  2511  0318  2B1A               	goto	u1690
  2512  0319  2B1B               u1691:
  2513  031A                     	goto	l1452
  2514  031A  2B1D               u1690:
  2515  031B                     	line	42
  2516                           	
  2517                           l1450:	
  2518  031B                     	bsf	(___xxtofl@arg)+(31/8),(31)&7
  2519  031B  17FD               	goto	l1452
  2520  031C  2B1D               	
  2521                           l656:	
  2522  031D                     	line	43
  2523                           	
  2524                           l1452:	
  2525  031D                     	movf	(___xxtofl@arg+3),w
  2526  031D  087D               	movwf	(?___xxtofl+3)
  2527  031E  00F3               	movf	(___xxtofl@arg+2),w
  2528  031F  087C               	movwf	(?___xxtofl+2)
  2529  0320  00F2               	movf	(___xxtofl@arg+1),w
  2530  0321  087B               	movwf	(?___xxtofl+1)
  2531  0322  00F1               	movf	(___xxtofl@arg),w
  2532  0323  087A               	movwf	(?___xxtofl)
  2533  0324  00F0               
  2534                           	goto	l643
  2535  0325  2B26               	
  2536                           l1454:	
  2537  0326                     	line	44
  2538                           	
  2539                           l643:	
  2540  0326                     	return
  2541  0326  0008               	opt stack 0
  2542                           GLOBAL	__end_of___xxtofl
  2543                           	__end_of___xxtofl:
  2544  0327                     	signat	___xxtofl,8316
  2545                           	global	___fltol
  2546                           
  2547 ;; *************** function ___fltol *****************
  2548 ;; Defined at:
  2549 ;;		line 43 in file "C:\Program Files (x86)\Microchip\xc8\v2.00\pic\sources\c90\common\fltol.c"
  2550 ;; Parameters:    Size  Location     Type
  2551 ;;  f1              4   26[BANK0 ] unsigned char 
  2552 ;; Auto vars:     Size  Location     Type
  2553 ;;  exp1            1   36[BANK0 ] unsigned char 
  2554 ;;  sign1           1   35[BANK0 ] unsigned char 
  2555 ;; Return value:  Size  Location     Type
  2556 ;;                  4   26[BANK0 ] long 
  2557 ;; Registers used:
  2558 ;;		wreg, status,2, status,0
  2559 ;; Tracked objects:
  2560 ;;		On entry : 0/0
  2561 ;;		On exit  : 0/0
  2562 ;;		Unchanged: 0/0
  2563 ;; Data sizes:     COMMON   BANK0   BANK1   BANK3   BANK2
  2564 ;;      Params:         0       4       0       0       0
  2565 ;;      Locals:         0       2       0       0       0
  2566 ;;      Temps:          0       5       0       0       0
  2567 ;;      Totals:         0      11       0       0       0
  2568 ;;Total ram usage:       11 bytes
  2569 ;; Hardware stack levels used:    1
  2570 ;; This function calls:
  2571 ;;		Nothing
  2572 ;; This function is called by:
  2573 ;;		_motorPasso
  2574 ;;		_celsius
  2575 ;; This function uses a non-reentrant model
  2576 ;;
  2577                           psect	text7,local,class=CODE,delta=2,merge=1,group=1
  2578                           	file	"C:\Program Files (x86)\Microchip\xc8\v2.00\pic\sources\c90\common\fltol.c"
  2579                           	line	43
  2580                           global __ptext7
  2581                           __ptext7:	;psect for function ___fltol
  2582  01C9                     psect	text7
  2583                           	file	"C:\Program Files (x86)\Microchip\xc8\v2.00\pic\sources\c90\common\fltol.c"
  2584                           	line	43
  2585                           	global	__size_of___fltol
  2586                           	__size_of___fltol	equ	__end_of___fltol-___fltol
  2587  009C                     	
  2588                           ___fltol:	
  2589  01C9                     ;incstack = 0
  2590                           	opt	stack 6
  2591                           ; Regs used in ___fltol: [wreg+status,2+status,0]
  2592                           	line	47
  2593                           	
  2594                           l1236:	
  2595  01C9                     	bcf	status, 5	;RP0=0, select bank0
  2596  01C9  1283               	bcf	status, 6	;RP1=0, select bank0
  2597  01CA  1303               	movf	(___fltol@f1),w
  2598  01CB  083A               	movwf	(??___fltol+0)+0
  2599  01CC  00BE               	movf	(___fltol@f1+1),w
  2600  01CD  083B               	movwf	((??___fltol+0)+0+1)
  2601  01CE  00BF               	movf	(___fltol@f1+2),w
  2602  01CF  083C               	movwf	((??___fltol+0)+0+2)
  2603  01D0  00C0               	movf	(___fltol@f1+3),w
  2604  01D1  083D               	movwf	((??___fltol+0)+0+3)
  2605  01D2  00C1               	clrc
  2606  01D3  1003               	rlf	(??___fltol+0)+2,w
  2607  01D4  0D40               	rlf	(??___fltol+0)+3,w
  2608  01D5  0D41               	movwf	(??___fltol+4)+0
  2609  01D6  00C2               	movf	(??___fltol+4)+0,w
  2610  01D7  0842               	movwf	(___fltol@exp1)
  2611  01D8  00C4               	movf	(((___fltol@exp1))),w
  2612  01D9  0844               	btfss	status,2
  2613  01DA  1D03               	goto	u1091
  2614  01DB  29DD               	goto	u1090
  2615  01DC  29DE               u1091:
  2616  01DD                     	goto	l1242
  2617  01DD  29E8               u1090:
  2618  01DE                     	line	48
  2619                           	
  2620                           l1238:	
  2621  01DE                     	movlw	high highword(0)
  2622  01DE  3000               	movwf	(?___fltol+3)
  2623  01DF  00BD               	movlw	low highword(0)
  2624  01E0  3000               	movwf	(?___fltol+2)
  2625  01E1  00BC               	movlw	high(0)
  2626  01E2  3000               	movwf	(?___fltol+1)
  2627  01E3  00BB               	movlw	low(0)
  2628  01E4  3000               	movwf	(?___fltol)
  2629  01E5  00BA               
  2630                           	goto	l419
  2631  01E6  2A64               	
  2632                           l1240:	
  2633  01E7                     	goto	l419
  2634  01E7  2A64               	
  2635                           l418:	
  2636  01E8                     	line	49
  2637                           	
  2638                           l1242:	
  2639  01E8                     	movf	(___fltol@f1),w
  2640  01E8  083A               	movwf	(??___fltol+0)+0
  2641  01E9  00BE               	movf	(___fltol@f1+1),w
  2642  01EA  083B               	movwf	((??___fltol+0)+0+1)
  2643  01EB  00BF               	movf	(___fltol@f1+2),w
  2644  01EC  083C               	movwf	((??___fltol+0)+0+2)
  2645  01ED  00C0               	movf	(___fltol@f1+3),w
  2646  01EE  083D               	movwf	((??___fltol+0)+0+3)
  2647  01EF  00C1               	movlw	01Fh
  2648  01F0  301F               u1105:
  2649  01F1                     	clrc
  2650  01F1  1003               	rrf	(??___fltol+0)+3,f
  2651  01F2  0CC1               	rrf	(??___fltol+0)+2,f
  2652  01F3  0CC0               	rrf	(??___fltol+0)+1,f
  2653  01F4  0CBF               	rrf	(??___fltol+0)+0,f
  2654  01F5  0CBE               u1100:
  2655  01F6                     	addlw	-1
  2656  01F6  3EFF               	skipz
  2657  01F7  1D03               	goto	u1105
  2658  01F8  29F1               	movf	0+(??___fltol+0)+0,w
  2659  01F9  083E               	movwf	(??___fltol+4)+0
  2660  01FA  00C2               	movf	(??___fltol+4)+0,w
  2661  01FB  0842               	movwf	(___fltol@sign1)
  2662  01FC  00C3               	line	50
  2663                           	
  2664                           l1244:	
  2665  01FD                     	bsf	(___fltol@f1)+(23/8),(23)&7
  2666  01FD  17BC               	line	51
  2667                           	
  2668                           l1246:	
  2669  01FE                     	movlw	0FFh
  2670  01FE  30FF               	andwf	(___fltol@f1),f
  2671  01FF  05BA               	movlw	0FFh
  2672  0200  30FF               	andwf	(___fltol@f1+1),f
  2673  0201  05BB               	movlw	0FFh
  2674  0202  30FF               	andwf	(___fltol@f1+2),f
  2675  0203  05BC               	movlw	0
  2676  0204  3000               	andwf	(___fltol@f1+3),f
  2677  0205  05BD               	line	52
  2678                           	
  2679                           l1248:	
  2680  0206                     	movlw	096h
  2681  0206  3096               	subwf	(___fltol@exp1),f
  2682  0207  02C4               	line	53
  2683                           	
  2684                           l1250:	
  2685  0208                     	btfss	(___fltol@exp1),7
  2686  0208  1FC4               	goto	u1111
  2687  0209  2A0B               	goto	u1110
  2688  020A  2A0C               u1111:
  2689  020B                     	goto	l1260
  2690  020B  2A31               u1110:
  2691  020C                     	line	54
  2692                           	
  2693                           l1252:	
  2694  020C                     	movf	(___fltol@exp1),w
  2695  020C  0844               	xorlw	80h
  2696  020D  3A80               	addlw	-((-23)^80h)
  2697  020E  3E97               	skipnc
  2698  020F  1803               	goto	u1121
  2699  0210  2A12               	goto	u1120
  2700  0211  2A13               u1121:
  2701  0212                     	goto	l1258
  2702  0212  2A1E               u1120:
  2703  0213                     	line	55
  2704                           	
  2705                           l1254:	
  2706  0213                     	movlw	high highword(0)
  2707  0213  3000               	movwf	(?___fltol+3)
  2708  0214  00BD               	movlw	low highword(0)
  2709  0215  3000               	movwf	(?___fltol+2)
  2710  0216  00BC               	movlw	high(0)
  2711  0217  3000               	movwf	(?___fltol+1)
  2712  0218  00BB               	movlw	low(0)
  2713  0219  3000               	movwf	(?___fltol)
  2714  021A  00BA               
  2715                           	goto	l419
  2716  021B  2A64               	
  2717                           l1256:	
  2718  021C                     	goto	l419
  2719  021C  2A64               	
  2720                           l421:	
  2721  021D                     	goto	l1258
  2722  021D  2A1E               	line	56
  2723                           	
  2724                           l422:	
  2725  021E                     	line	57
  2726                           	
  2727                           l1258:	
  2728  021E                     	movlw	01h
  2729  021E  3001               u1135:
  2730  021F                     	clrc
  2731  021F  1003               	rrf	(___fltol@f1+3),f
  2732  0220  0CBD               	rrf	(___fltol@f1+2),f
  2733  0221  0CBC               	rrf	(___fltol@f1+1),f
  2734  0222  0CBB               	rrf	(___fltol@f1),f
  2735  0223  0CBA               	addlw	-1
  2736  0224  3EFF               	skipz
  2737  0225  1D03               	goto	u1135
  2738  0226  2A1F               
  2739                           	line	58
  2740                           	movlw	low(01h)
  2741  0227  3001               	movwf	(??___fltol+0)+0
  2742  0228  00BE               	movf	(??___fltol+0)+0,w
  2743  0229  083E               	addwf	(___fltol@exp1),f
  2744  022A  07C4               	btfss	status,2
  2745  022B  1D03               	goto	u1141
  2746  022C  2A2E               	goto	u1140
  2747  022D  2A2F               u1141:
  2748  022E                     	goto	l1258
  2749  022E  2A1E               u1140:
  2750  022F                     	goto	l1268
  2751  022F  2A54               	
  2752                           l423:	
  2753  0230                     	line	59
  2754                           	goto	l1268
  2755  0230  2A54               	
  2756                           l420:	
  2757  0231                     	line	60
  2758                           	
  2759                           l1260:	
  2760  0231                     	movlw	low(020h)
  2761  0231  3020               	subwf	(___fltol@exp1),w
  2762  0232  0244               	skipc
  2763  0233  1C03               	goto	u1151
  2764  0234  2A36               	goto	u1150
  2765  0235  2A37               u1151:
  2766  0236                     	goto	l426
  2767  0236  2A4D               u1150:
  2768  0237                     	line	61
  2769                           	
  2770                           l1262:	
  2771  0237                     	movlw	high highword(0)
  2772  0237  3000               	movwf	(?___fltol+3)
  2773  0238  00BD               	movlw	low highword(0)
  2774  0239  3000               	movwf	(?___fltol+2)
  2775  023A  00BC               	movlw	high(0)
  2776  023B  3000               	movwf	(?___fltol+1)
  2777  023C  00BB               	movlw	low(0)
  2778  023D  3000               	movwf	(?___fltol)
  2779  023E  00BA               
  2780                           	goto	l419
  2781  023F  2A64               	
  2782                           l1264:	
  2783  0240                     	goto	l419
  2784  0240  2A64               	
  2785                           l425:	
  2786  0241                     	line	62
  2787                           	goto	l426
  2788  0241  2A4D               	
  2789                           l427:	
  2790  0242                     	line	63
  2791                           	
  2792                           l1266:	
  2793  0242                     	movlw	01h
  2794  0242  3001               	movwf	(??___fltol+0)+0
  2795  0243  00BE               u1165:
  2796  0244                     	clrc
  2797  0244  1003               	rlf	(___fltol@f1),f
  2798  0245  0DBA               	rlf	(___fltol@f1+1),f
  2799  0246  0DBB               	rlf	(___fltol@f1+2),f
  2800  0247  0DBC               	rlf	(___fltol@f1+3),f
  2801  0248  0DBD               	decfsz	(??___fltol+0)+0
  2802  0249  0BBE               	goto	u1165
  2803  024A  2A44               	line	64
  2804                           	movlw	01h
  2805  024B  3001               	subwf	(___fltol@exp1),f
  2806  024C  02C4               	line	65
  2807                           	
  2808                           l426:	
  2809  024D                     	line	62
  2810                           	movf	((___fltol@exp1)),w
  2811  024D  0844               	btfss	status,2
  2812  024E  1D03               	goto	u1171
  2813  024F  2A51               	goto	u1170
  2814  0250  2A52               u1171:
  2815  0251                     	goto	l1266
  2816  0251  2A42               u1170:
  2817  0252                     	goto	l1268
  2818  0252  2A54               	
  2819                           l428:	
  2820  0253                     	goto	l1268
  2821  0253  2A54               	line	66
  2822                           	
  2823                           l424:	
  2824  0254                     	line	67
  2825                           	
  2826                           l1268:	
  2827  0254                     	movf	((___fltol@sign1)),w
  2828  0254  0843               	btfsc	status,2
  2829  0255  1903               	goto	u1181
  2830  0256  2A58               	goto	u1180
  2831  0257  2A59               u1181:
  2832  0258                     	goto	l429
  2833  0258  2A64               u1180:
  2834  0259                     	line	68
  2835                           	
  2836                           l1270:	
  2837  0259                     	comf	(___fltol@f1),f
  2838  0259  09BA               	comf	(___fltol@f1+1),f
  2839  025A  09BB               	comf	(___fltol@f1+2),f
  2840  025B  09BC               	comf	(___fltol@f1+3),f
  2841  025C  09BD               	incf	(___fltol@f1),f
  2842  025D  0ABA               	skipnz
  2843  025E  1903               	incf	(___fltol@f1+1),f
  2844  025F  0ABB               	skipnz
  2845  0260  1903               	incf	(___fltol@f1+2),f
  2846  0261  0ABC               	skipnz
  2847  0262  1903               	incf	(___fltol@f1+3),f
  2848  0263  0ABD               	
  2849                           l429:	
  2850  0264                     	line	69
  2851                           	line	70
  2852                           	
  2853                           l419:	
  2854  0264                     	return
  2855  0264  0008               	opt stack 0
  2856                           GLOBAL	__end_of___fltol
  2857                           	__end_of___fltol:
  2858  0265                     	signat	___fltol,4220
  2859                           	global	___flmul
  2860                           
  2861 ;; *************** function ___flmul *****************
  2862 ;; Defined at:
  2863 ;;		line 8 in file "C:\Program Files (x86)\Microchip\xc8\v2.00\pic\sources\c90\common\sprcmul.c"
  2864 ;; Parameters:    Size  Location     Type
  2865 ;;  b               4    0[BANK0 ] long 
  2866 ;;  a               4    4[BANK0 ] long 
  2867 ;; Auto vars:     Size  Location     Type
  2868 ;;  prod            4   20[BANK0 ] struct .
  2869 ;;  grs             4   14[BANK0 ] unsigned long 
  2870 ;;  temp            2   24[BANK0 ] struct .
  2871 ;;  bexp            1   19[BANK0 ] unsigned char 
  2872 ;;  aexp            1   18[BANK0 ] unsigned char 
  2873 ;;  sign            1   13[BANK0 ] unsigned char 
  2874 ;; Return value:  Size  Location     Type
  2875 ;;                  4    0[BANK0 ] unsigned char 
  2876 ;; Registers used:
  2877 ;;		wreg, status,2, status,0, btemp+1, pclath, cstack
  2878 ;; Tracked objects:
  2879 ;;		On entry : 0/0
  2880 ;;		On exit  : 0/0
  2881 ;;		Unchanged: 0/0
  2882 ;; Data sizes:     COMMON   BANK0   BANK1   BANK3   BANK2
  2883 ;;      Params:         0       8       0       0       0
  2884 ;;      Locals:         0      13       0       0       0
  2885 ;;      Temps:          0       5       0       0       0
  2886 ;;      Totals:         0      26       0       0       0
  2887 ;;Total ram usage:       26 bytes
  2888 ;; Hardware stack levels used:    1
  2889 ;; Hardware stack levels required when called:    1
  2890 ;; This function calls:
  2891 ;;		__Umul8_16
  2892 ;; This function is called by:
  2893 ;;		_motorPasso
  2894 ;;		_celsius
  2895 ;; This function uses a non-reentrant model
  2896 ;;
  2897                           psect	text8,local,class=CODE,delta=2,merge=1,group=1
  2898                           	file	"C:\Program Files (x86)\Microchip\xc8\v2.00\pic\sources\c90\common\sprcmul.c"
  2899                           	line	8
  2900                           global __ptext8
  2901                           __ptext8:	;psect for function ___flmul
  2902  0479                     psect	text8
  2903                           	file	"C:\Program Files (x86)\Microchip\xc8\v2.00\pic\sources\c90\common\sprcmul.c"
  2904                           	line	8
  2905                           	global	__size_of___flmul
  2906                           	__size_of___flmul	equ	__end_of___flmul-___flmul
  2907  0375                     	
  2908                           ___flmul:	
  2909  0479                     ;incstack = 0
  2910                           	opt	stack 5
  2911                           ; Regs used in ___flmul: [wreg+status,2+status,0+btemp+1+pclath+cstack]
  2912                           	line	17
  2913                           	
  2914                           l1272:	
  2915  0479                     	bcf	status, 5	;RP0=0, select bank0
  2916  0479  1283               	bcf	status, 6	;RP1=0, select bank0
  2917  047A  1303               	movf	0+(___flmul@b)+03h,w
  2918  047B  0823               	andlw	080h
  2919  047C  3980               	movwf	(??___flmul+0)+0
  2920  047D  00A8               	movf	(??___flmul+0)+0,w
  2921  047E  0828               	movwf	(___flmul@sign)
  2922  047F  00AD               	line	18
  2923                           	
  2924                           l1274:	
  2925  0480                     	movf	0+(___flmul@b)+03h,w
  2926  0480  0823               	movwf	(??___flmul+0)+0
  2927  0481  00A8               	addwf	(??___flmul+0)+0,w
  2928  0482  0728               	movwf	(??___flmul+1)+0
  2929  0483  00A9               	movf	(??___flmul+1)+0,w
  2930  0484  0829               	movwf	(___flmul@bexp)
  2931  0485  00B3               	line	19
  2932                           	
  2933                           l1276:	
  2934  0486                     	btfss	0+(___flmul@b)+02h,(7)&7
  2935  0486  1FA2               	goto	u1191
  2936  0487  2C89               	goto	u1190
  2937  0488  2C8A               u1191:
  2938  0489                     	goto	l1280
  2939  0489  2C8C               u1190:
  2940  048A                     	line	20
  2941                           	
  2942                           l1278:	
  2943  048A                     	bsf	(___flmul@bexp)+(0/8),(0)&7
  2944  048A  1433               	goto	l1280
  2945  048B  2C8C               	line	21
  2946                           	
  2947                           l611:	
  2948  048C                     	line	24
  2949                           	
  2950                           l1280:	
  2951  048C                     	movf	((___flmul@bexp)),w
  2952  048C  0833               	btfsc	status,2
  2953  048D  1903               	goto	u1201
  2954  048E  2C90               	goto	u1200
  2955  048F  2C91               u1201:
  2956  0490                     	goto	l1288
  2957  0490  2CA1               u1200:
  2958  0491                     	line	26
  2959                           	
  2960                           l1282:	
  2961  0491                     		incf	((___flmul@bexp)),w
  2962  0491  0A33               	btfss	status,2
  2963  0492  1D03               	goto	u1211
  2964  0493  2C95               	goto	u1210
  2965  0494  2C96               u1211:
  2966  0495                     	goto	l1286
  2967  0495  2C9F               u1210:
  2968  0496                     	line	28
  2969                           	
  2970                           l1284:	
  2971  0496                     	movlw	0x0
  2972  0496  3000               	movwf	(___flmul@b+3)
  2973  0497  00A3               	movlw	0x0
  2974  0498  3000               	movwf	(___flmul@b+2)
  2975  0499  00A2               	movlw	0x0
  2976  049A  3000               	movwf	(___flmul@b+1)
  2977  049B  00A1               	movlw	0x0
  2978  049C  3000               	movwf	(___flmul@b)
  2979  049D  00A0               
  2980                           	goto	l1286
  2981  049E  2C9F               	line	29
  2982                           	
  2983                           l613:	
  2984  049F                     	line	31
  2985                           	
  2986                           l1286:	
  2987  049F                     	bsf	(___flmul@b)+(23/8),(23)&7
  2988  049F  17A2               	line	33
  2989                           	goto	l1290
  2990  04A0  2CAA               	line	34
  2991                           	
  2992                           l612:	
  2993  04A1                     	line	36
  2994                           	
  2995                           l1288:	
  2996  04A1                     	movlw	0x0
  2997  04A1  3000               	movwf	(___flmul@b+3)
  2998  04A2  00A3               	movlw	0x0
  2999  04A3  3000               	movwf	(___flmul@b+2)
  3000  04A4  00A2               	movlw	0x0
  3001  04A5  3000               	movwf	(___flmul@b+1)
  3002  04A6  00A1               	movlw	0x0
  3003  04A7  3000               	movwf	(___flmul@b)
  3004  04A8  00A0               
  3005                           	goto	l1290
  3006  04A9  2CAA               	line	37
  3007                           	
  3008                           l614:	
  3009  04AA                     	line	39
  3010                           	
  3011                           l1290:	
  3012  04AA                     	movf	0+(___flmul@a)+03h,w
  3013  04AA  0827               	andlw	080h
  3014  04AB  3980               	movwf	(??___flmul+0)+0
  3015  04AC  00A8               	movf	(??___flmul+0)+0,w
  3016  04AD  0828               	xorwf	(___flmul@sign),f
  3017  04AE  06AD               	line	40
  3018                           	
  3019                           l1292:	
  3020  04AF                     	movf	0+(___flmul@a)+03h,w
  3021  04AF  0827               	movwf	(??___flmul+0)+0
  3022  04B0  00A8               	addwf	(??___flmul+0)+0,w
  3023  04B1  0728               	movwf	(??___flmul+1)+0
  3024  04B2  00A9               	movf	(??___flmul+1)+0,w
  3025  04B3  0829               	movwf	(___flmul@aexp)
  3026  04B4  00B2               	line	41
  3027                           	
  3028                           l1294:	
  3029  04B5                     	btfss	0+(___flmul@a)+02h,(7)&7
  3030  04B5  1FA6               	goto	u1221
  3031  04B6  2CB8               	goto	u1220
  3032  04B7  2CB9               u1221:
  3033  04B8                     	goto	l1298
  3034  04B8  2CBB               u1220:
  3035  04B9                     	line	42
  3036                           	
  3037                           l1296:	
  3038  04B9                     	bsf	(___flmul@aexp)+(0/8),(0)&7
  3039  04B9  1432               	goto	l1298
  3040  04BA  2CBB               	line	43
  3041                           	
  3042                           l615:	
  3043  04BB                     	line	45
  3044                           	
  3045                           l1298:	
  3046  04BB                     	movf	((___flmul@aexp)),w
  3047  04BB  0832               	btfsc	status,2
  3048  04BC  1903               	goto	u1231
  3049  04BD  2CBF               	goto	u1230
  3050  04BE  2CC0               u1231:
  3051  04BF                     	goto	l1306
  3052  04BF  2CD0               u1230:
  3053  04C0                     	line	48
  3054                           	
  3055                           l1300:	
  3056  04C0                     		incf	((___flmul@aexp)),w
  3057  04C0  0A32               	btfss	status,2
  3058  04C1  1D03               	goto	u1241
  3059  04C2  2CC4               	goto	u1240
  3060  04C3  2CC5               u1241:
  3061  04C4                     	goto	l1304
  3062  04C4  2CCE               u1240:
  3063  04C5                     	line	50
  3064                           	
  3065                           l1302:	
  3066  04C5                     	movlw	0x0
  3067  04C5  3000               	movwf	(___flmul@a+3)
  3068  04C6  00A7               	movlw	0x0
  3069  04C7  3000               	movwf	(___flmul@a+2)
  3070  04C8  00A6               	movlw	0x0
  3071  04C9  3000               	movwf	(___flmul@a+1)
  3072  04CA  00A5               	movlw	0x0
  3073  04CB  3000               	movwf	(___flmul@a)
  3074  04CC  00A4               
  3075                           	goto	l1304
  3076  04CD  2CCE               	line	51
  3077                           	
  3078                           l617:	
  3079  04CE                     	line	53
  3080                           	
  3081                           l1304:	
  3082  04CE                     	bsf	(___flmul@a)+(23/8),(23)&7
  3083  04CE  17A6               	line	54
  3084                           	goto	l1308
  3085  04CF  2CD9               	line	55
  3086                           	
  3087                           l616:	
  3088  04D0                     	line	57
  3089                           	
  3090                           l1306:	
  3091  04D0                     	movlw	0x0
  3092  04D0  3000               	movwf	(___flmul@a+3)
  3093  04D1  00A7               	movlw	0x0
  3094  04D2  3000               	movwf	(___flmul@a+2)
  3095  04D3  00A6               	movlw	0x0
  3096  04D4  3000               	movwf	(___flmul@a+1)
  3097  04D5  00A5               	movlw	0x0
  3098  04D6  3000               	movwf	(___flmul@a)
  3099  04D7  00A4               
  3100                           	goto	l1308
  3101  04D8  2CD9               	line	58
  3102                           	
  3103                           l618:	
  3104  04D9                     	line	65
  3105                           	
  3106                           l1308:	
  3107  04D9                     	movf	((___flmul@aexp)),w
  3108  04D9  0832               	btfsc	status,2
  3109  04DA  1903               	goto	u1251
  3110  04DB  2CDD               	goto	u1250
  3111  04DC  2CDE               u1251:
  3112  04DD                     	goto	l1312
  3113  04DD  2CE4               u1250:
  3114  04DE                     	
  3115                           l1310:	
  3116  04DE                     	movf	((___flmul@bexp)),w
  3117  04DE  0833               	btfss	status,2
  3118  04DF  1D03               	goto	u1261
  3119  04E0  2CE2               	goto	u1260
  3120  04E1  2CE3               u1261:
  3121  04E2                     	goto	l1316
  3122  04E2  2CEE               u1260:
  3123  04E3                     	goto	l1312
  3124  04E3  2CE4               	
  3125                           l621:	
  3126  04E4                     	line	66
  3127                           	
  3128                           l1312:	
  3129  04E4                     	movlw	0x0
  3130  04E4  3000               	movwf	(?___flmul+3)
  3131  04E5  00A3               	movlw	0x0
  3132  04E6  3000               	movwf	(?___flmul+2)
  3133  04E7  00A2               	movlw	0x0
  3134  04E8  3000               	movwf	(?___flmul+1)
  3135  04E9  00A1               	movlw	0x0
  3136  04EA  3000               	movwf	(?___flmul)
  3137  04EB  00A0               
  3138                           	goto	l622
  3139  04EC  2FED               	
  3140                           l1314:	
  3141  04ED                     	goto	l622
  3142  04ED  2FED               	line	67
  3143                           	
  3144                           l619:	
  3145  04EE                     	line	119
  3146                           	
  3147                           l1316:	
  3148  04EE                     	movf	(___flmul@b),w
  3149  04EE  0820               	movwf	(??___flmul+0)+0
  3150  04EF  00A8               	movf	(??___flmul+0)+0,w
  3151  04F0  0828               	movwf	(__Umul8_16@multiplicand)
  3152  04F1  00F0               	movf	0+(___flmul@a)+02h,w
  3153  04F2  0826               	fcall	__Umul8_16
  3154  04F3  120A  118A  212D  120A  118A  	movf	(1+(?__Umul8_16)),w
  3155  04F8  0871               	bcf	status, 5	;RP0=0, select bank0
  3156  04F9  1283               	bcf	status, 6	;RP1=0, select bank0
  3157  04FA  1303               	movwf	(___flmul@temp+1)
  3158  04FB  00B9               	movf	(0+(?__Umul8_16)),w
  3159  04FC  0870               	movwf	(___flmul@temp)
  3160  04FD  00B8               	line	120
  3161                           	
  3162                           l1318:	
  3163  04FE                     	movf	(___flmul@temp),w
  3164  04FE  0838               	movwf	(??___flmul+0)+0
  3165  04FF  00A8               	clrf	(??___flmul+0)+0+1
  3166  0500  01A9               	clrf	(??___flmul+0)+0+2
  3167  0501  01AA               	clrf	(??___flmul+0)+0+3
  3168  0502  01AB               	movf	3+(??___flmul+0)+0,w
  3169  0503  082B               	movwf	(___flmul@grs+3)
  3170  0504  00B1               	movf	2+(??___flmul+0)+0,w
  3171  0505  082A               	movwf	(___flmul@grs+2)
  3172  0506  00B0               	movf	1+(??___flmul+0)+0,w
  3173  0507  0829               	movwf	(___flmul@grs+1)
  3174  0508  00AF               	movf	0+(??___flmul+0)+0,w
  3175  0509  0828               	movwf	(___flmul@grs)
  3176  050A  00AE               
  3177                           	line	121
  3178                           	
  3179                           l1320:	
  3180  050B                     	movf	0+(___flmul@temp)+01h,w
  3181  050B  0839               	movwf	(??___flmul+0)+0
  3182  050C  00A8               	clrf	(??___flmul+0)+0+1
  3183  050D  01A9               	clrf	(??___flmul+0)+0+2
  3184  050E  01AA               	clrf	(??___flmul+0)+0+3
  3185  050F  01AB               	movf	3+(??___flmul+0)+0,w
  3186  0510  082B               	movwf	(___flmul@prod+3)
  3187  0511  00B7               	movf	2+(??___flmul+0)+0,w
  3188  0512  082A               	movwf	(___flmul@prod+2)
  3189  0513  00B6               	movf	1+(??___flmul+0)+0,w
  3190  0514  0829               	movwf	(___flmul@prod+1)
  3191  0515  00B5               	movf	0+(??___flmul+0)+0,w
  3192  0516  0828               	movwf	(___flmul@prod)
  3193  0517  00B4               
  3194                           	line	122
  3195                           	movf	0+(___flmul@b)+01h,w
  3196  0518  0821               	movwf	(??___flmul+0)+0
  3197  0519  00A8               	movf	(??___flmul+0)+0,w
  3198  051A  0828               	movwf	(__Umul8_16@multiplicand)
  3199  051B  00F0               	movf	0+(___flmul@a)+01h,w
  3200  051C  0825               	fcall	__Umul8_16
  3201  051D  120A  118A  212D  120A  118A  	movf	(1+(?__Umul8_16)),w
  3202  0522  0871               	bcf	status, 5	;RP0=0, select bank0
  3203  0523  1283               	bcf	status, 6	;RP1=0, select bank0
  3204  0524  1303               	movwf	(___flmul@temp+1)
  3205  0525  00B9               	movf	(0+(?__Umul8_16)),w
  3206  0526  0870               	movwf	(___flmul@temp)
  3207  0527  00B8               	line	123
  3208                           	
  3209                           l1322:	
  3210  0528                     	movf	(___flmul@temp),w
  3211  0528  0838               	movwf	(??___flmul+0)+0
  3212  0529  00A8               	clrf	(??___flmul+0)+0+1
  3213  052A  01A9               	clrf	(??___flmul+0)+0+2
  3214  052B  01AA               	clrf	(??___flmul+0)+0+3
  3215  052C  01AB               	movf	0+(??___flmul+0)+0,w
  3216  052D  0828               	addwf	(___flmul@grs),f
  3217  052E  07AE               	movf	1+(??___flmul+0)+0,w
  3218  052F  0829               	clrz
  3219  0530  1103               	skipnc
  3220  0531  1803               	addlw	1
  3221  0532  3E01               	skipnz
  3222  0533  1903               	goto	u1271
  3223  0534  2D36               	addwf	(___flmul@grs+1),f
  3224  0535  07AF               u1271:
  3225  0536                     	movf	2+(??___flmul+0)+0,w
  3226  0536  082A               	clrz
  3227  0537  1103               	skipnc
  3228  0538  1803               	addlw	1
  3229  0539  3E01               	skipnz
  3230  053A  1903               	goto	u1272
  3231  053B  2D3D               	addwf	(___flmul@grs+2),f
  3232  053C  07B0               u1272:
  3233  053D                     	movf	3+(??___flmul+0)+0,w
  3234  053D  082B               	clrz
  3235  053E  1103               	skipnc
  3236  053F  1803               	addlw	1
  3237  0540  3E01               	skipnz
  3238  0541  1903               	goto	u1273
  3239  0542  2D44               	addwf	(___flmul@grs+3),f
  3240  0543  07B1               u1273:
  3241  0544                     
  3242                           	line	124
  3243                           	
  3244                           l1324:	
  3245  0544                     	movf	0+(___flmul@temp)+01h,w
  3246  0544  0839               	movwf	(??___flmul+0)+0
  3247  0545  00A8               	clrf	(??___flmul+0)+0+1
  3248  0546  01A9               	clrf	(??___flmul+0)+0+2
  3249  0547  01AA               	clrf	(??___flmul+0)+0+3
  3250  0548  01AB               	movf	0+(??___flmul+0)+0,w
  3251  0549  0828               	addwf	(___flmul@prod),f
  3252  054A  07B4               	movf	1+(??___flmul+0)+0,w
  3253  054B  0829               	clrz
  3254  054C  1103               	skipnc
  3255  054D  1803               	addlw	1
  3256  054E  3E01               	skipnz
  3257  054F  1903               	goto	u1281
  3258  0550  2D52               	addwf	(___flmul@prod+1),f
  3259  0551  07B5               u1281:
  3260  0552                     	movf	2+(??___flmul+0)+0,w
  3261  0552  082A               	clrz
  3262  0553  1103               	skipnc
  3263  0554  1803               	addlw	1
  3264  0555  3E01               	skipnz
  3265  0556  1903               	goto	u1282
  3266  0557  2D59               	addwf	(___flmul@prod+2),f
  3267  0558  07B6               u1282:
  3268  0559                     	movf	3+(??___flmul+0)+0,w
  3269  0559  082B               	clrz
  3270  055A  1103               	skipnc
  3271  055B  1803               	addlw	1
  3272  055C  3E01               	skipnz
  3273  055D  1903               	goto	u1283
  3274  055E  2D60               	addwf	(___flmul@prod+3),f
  3275  055F  07B7               u1283:
  3276  0560                     
  3277                           	line	125
  3278                           	movf	0+(___flmul@b)+02h,w
  3279  0560  0822               	movwf	(??___flmul+0)+0
  3280  0561  00A8               	movf	(??___flmul+0)+0,w
  3281  0562  0828               	movwf	(__Umul8_16@multiplicand)
  3282  0563  00F0               	movf	(___flmul@a),w
  3283  0564  0824               	fcall	__Umul8_16
  3284  0565  120A  118A  212D  120A  118A  	movf	(1+(?__Umul8_16)),w
  3285  056A  0871               	bcf	status, 5	;RP0=0, select bank0
  3286  056B  1283               	bcf	status, 6	;RP1=0, select bank0
  3287  056C  1303               	movwf	(___flmul@temp+1)
  3288  056D  00B9               	movf	(0+(?__Umul8_16)),w
  3289  056E  0870               	movwf	(___flmul@temp)
  3290  056F  00B8               	line	126
  3291                           	
  3292                           l1326:	
  3293  0570                     	movf	(___flmul@temp),w
  3294  0570  0838               	movwf	(??___flmul+0)+0
  3295  0571  00A8               	clrf	(??___flmul+0)+0+1
  3296  0572  01A9               	clrf	(??___flmul+0)+0+2
  3297  0573  01AA               	clrf	(??___flmul+0)+0+3
  3298  0574  01AB               	movf	0+(??___flmul+0)+0,w
  3299  0575  0828               	addwf	(___flmul@grs),f
  3300  0576  07AE               	movf	1+(??___flmul+0)+0,w
  3301  0577  0829               	clrz
  3302  0578  1103               	skipnc
  3303  0579  1803               	addlw	1
  3304  057A  3E01               	skipnz
  3305  057B  1903               	goto	u1291
  3306  057C  2D7E               	addwf	(___flmul@grs+1),f
  3307  057D  07AF               u1291:
  3308  057E                     	movf	2+(??___flmul+0)+0,w
  3309  057E  082A               	clrz
  3310  057F  1103               	skipnc
  3311  0580  1803               	addlw	1
  3312  0581  3E01               	skipnz
  3313  0582  1903               	goto	u1292
  3314  0583  2D85               	addwf	(___flmul@grs+2),f
  3315  0584  07B0               u1292:
  3316  0585                     	movf	3+(??___flmul+0)+0,w
  3317  0585  082B               	clrz
  3318  0586  1103               	skipnc
  3319  0587  1803               	addlw	1
  3320  0588  3E01               	skipnz
  3321  0589  1903               	goto	u1293
  3322  058A  2D8C               	addwf	(___flmul@grs+3),f
  3323  058B  07B1               u1293:
  3324  058C                     
  3325                           	line	127
  3326                           	
  3327                           l1328:	
  3328  058C                     	movf	0+(___flmul@temp)+01h,w
  3329  058C  0839               	movwf	(??___flmul+0)+0
  3330  058D  00A8               	clrf	(??___flmul+0)+0+1
  3331  058E  01A9               	clrf	(??___flmul+0)+0+2
  3332  058F  01AA               	clrf	(??___flmul+0)+0+3
  3333  0590  01AB               	movf	0+(??___flmul+0)+0,w
  3334  0591  0828               	addwf	(___flmul@prod),f
  3335  0592  07B4               	movf	1+(??___flmul+0)+0,w
  3336  0593  0829               	clrz
  3337  0594  1103               	skipnc
  3338  0595  1803               	addlw	1
  3339  0596  3E01               	skipnz
  3340  0597  1903               	goto	u1301
  3341  0598  2D9A               	addwf	(___flmul@prod+1),f
  3342  0599  07B5               u1301:
  3343  059A                     	movf	2+(??___flmul+0)+0,w
  3344  059A  082A               	clrz
  3345  059B  1103               	skipnc
  3346  059C  1803               	addlw	1
  3347  059D  3E01               	skipnz
  3348  059E  1903               	goto	u1302
  3349  059F  2DA1               	addwf	(___flmul@prod+2),f
  3350  05A0  07B6               u1302:
  3351  05A1                     	movf	3+(??___flmul+0)+0,w
  3352  05A1  082B               	clrz
  3353  05A2  1103               	skipnc
  3354  05A3  1803               	addlw	1
  3355  05A4  3E01               	skipnz
  3356  05A5  1903               	goto	u1303
  3357  05A6  2DA8               	addwf	(___flmul@prod+3),f
  3358  05A7  07B7               u1303:
  3359  05A8                     
  3360                           	line	128
  3361                           	
  3362                           l1330:	
  3363  05A8                     	movlw	08h
  3364  05A8  3008               	movwf	(??___flmul+0)+0
  3365  05A9  00A8               u1315:
  3366  05AA                     	clrc
  3367  05AA  1003               	rlf	(___flmul@grs),f
  3368  05AB  0DAE               	rlf	(___flmul@grs+1),f
  3369  05AC  0DAF               	rlf	(___flmul@grs+2),f
  3370  05AD  0DB0               	rlf	(___flmul@grs+3),f
  3371  05AE  0DB1               	decfsz	(??___flmul+0)+0
  3372  05AF  0BA8               	goto	u1315
  3373  05B0  2DAA               	line	129
  3374                           	
  3375                           l1332:	
  3376  05B1                     	movf	0+(___flmul@b)+01h,w
  3377  05B1  0821               	movwf	(??___flmul+0)+0
  3378  05B2  00A8               	movf	(??___flmul+0)+0,w
  3379  05B3  0828               	movwf	(__Umul8_16@multiplicand)
  3380  05B4  00F0               	movf	(___flmul@a),w
  3381  05B5  0824               	fcall	__Umul8_16
  3382  05B6  120A  118A  212D  120A  118A  	movf	(1+(?__Umul8_16)),w
  3383  05BB  0871               	bcf	status, 5	;RP0=0, select bank0
  3384  05BC  1283               	bcf	status, 6	;RP1=0, select bank0
  3385  05BD  1303               	movwf	(___flmul@temp+1)
  3386  05BE  00B9               	movf	(0+(?__Umul8_16)),w
  3387  05BF  0870               	movwf	(___flmul@temp)
  3388  05C0  00B8               	line	130
  3389                           	
  3390                           l1334:	
  3391  05C1                     	movf	(___flmul@temp),w
  3392  05C1  0838               	movwf	((??___flmul+0)+0)
  3393  05C2  00A8               	movf	(___flmul@temp+1),w
  3394  05C3  0839               	movwf	((??___flmul+0)+0+1)
  3395  05C4  00A9               	clrf	((??___flmul+0)+0+2)
  3396  05C5  01AA               	clrf	((??___flmul+0)+0+3)
  3397  05C6  01AB               	movf	0+(??___flmul+0)+0,w
  3398  05C7  0828               	addwf	(___flmul@grs),f
  3399  05C8  07AE               	movf	1+(??___flmul+0)+0,w
  3400  05C9  0829               	clrz
  3401  05CA  1103               	skipnc
  3402  05CB  1803               	addlw	1
  3403  05CC  3E01               	skipnz
  3404  05CD  1903               	goto	u1321
  3405  05CE  2DD0               	addwf	(___flmul@grs+1),f
  3406  05CF  07AF               u1321:
  3407  05D0                     	movf	2+(??___flmul+0)+0,w
  3408  05D0  082A               	clrz
  3409  05D1  1103               	skipnc
  3410  05D2  1803               	addlw	1
  3411  05D3  3E01               	skipnz
  3412  05D4  1903               	goto	u1322
  3413  05D5  2DD7               	addwf	(___flmul@grs+2),f
  3414  05D6  07B0               u1322:
  3415  05D7                     	movf	3+(??___flmul+0)+0,w
  3416  05D7  082B               	clrz
  3417  05D8  1103               	skipnc
  3418  05D9  1803               	addlw	1
  3419  05DA  3E01               	skipnz
  3420  05DB  1903               	goto	u1323
  3421  05DC  2DDE               	addwf	(___flmul@grs+3),f
  3422  05DD  07B1               u1323:
  3423  05DE                     
  3424                           	line	131
  3425                           	
  3426                           l1336:	
  3427  05DE                     	movf	(___flmul@b),w
  3428  05DE  0820               	movwf	(??___flmul+0)+0
  3429  05DF  00A8               	movf	(??___flmul+0)+0,w
  3430  05E0  0828               	movwf	(__Umul8_16@multiplicand)
  3431  05E1  00F0               	movf	0+(___flmul@a)+01h,w
  3432  05E2  0825               	fcall	__Umul8_16
  3433  05E3  120A  118A  212D  120A  118A  	movf	(1+(?__Umul8_16)),w
  3434  05E8  0871               	bcf	status, 5	;RP0=0, select bank0
  3435  05E9  1283               	bcf	status, 6	;RP1=0, select bank0
  3436  05EA  1303               	movwf	(___flmul@temp+1)
  3437  05EB  00B9               	movf	(0+(?__Umul8_16)),w
  3438  05EC  0870               	movwf	(___flmul@temp)
  3439  05ED  00B8               	line	132
  3440                           	
  3441                           l1338:	
  3442  05EE                     	movf	(___flmul@temp),w
  3443  05EE  0838               	movwf	((??___flmul+0)+0)
  3444  05EF  00A8               	movf	(___flmul@temp+1),w
  3445  05F0  0839               	movwf	((??___flmul+0)+0+1)
  3446  05F1  00A9               	clrf	((??___flmul+0)+0+2)
  3447  05F2  01AA               	clrf	((??___flmul+0)+0+3)
  3448  05F3  01AB               	movf	0+(??___flmul+0)+0,w
  3449  05F4  0828               	addwf	(___flmul@grs),f
  3450  05F5  07AE               	movf	1+(??___flmul+0)+0,w
  3451  05F6  0829               	clrz
  3452  05F7  1103               	skipnc
  3453  05F8  1803               	addlw	1
  3454  05F9  3E01               	skipnz
  3455  05FA  1903               	goto	u1331
  3456  05FB  2DFD               	addwf	(___flmul@grs+1),f
  3457  05FC  07AF               u1331:
  3458  05FD                     	movf	2+(??___flmul+0)+0,w
  3459  05FD  082A               	clrz
  3460  05FE  1103               	skipnc
  3461  05FF  1803               	addlw	1
  3462  0600  3E01               	skipnz
  3463  0601  1903               	goto	u1332
  3464  0602  2E04               	addwf	(___flmul@grs+2),f
  3465  0603  07B0               u1332:
  3466  0604                     	movf	3+(??___flmul+0)+0,w
  3467  0604  082B               	clrz
  3468  0605  1103               	skipnc
  3469  0606  1803               	addlw	1
  3470  0607  3E01               	skipnz
  3471  0608  1903               	goto	u1333
  3472  0609  2E0B               	addwf	(___flmul@grs+3),f
  3473  060A  07B1               u1333:
  3474  060B                     
  3475                           	line	133
  3476                           	
  3477                           l1340:	
  3478  060B                     	movlw	08h
  3479  060B  3008               	movwf	(??___flmul+0)+0
  3480  060C  00A8               u1345:
  3481  060D                     	clrc
  3482  060D  1003               	rlf	(___flmul@grs),f
  3483  060E  0DAE               	rlf	(___flmul@grs+1),f
  3484  060F  0DAF               	rlf	(___flmul@grs+2),f
  3485  0610  0DB0               	rlf	(___flmul@grs+3),f
  3486  0611  0DB1               	decfsz	(??___flmul+0)+0
  3487  0612  0BA8               	goto	u1345
  3488  0613  2E0D               	line	134
  3489                           	movf	(___flmul@b),w
  3490  0614  0820               	movwf	(??___flmul+0)+0
  3491  0615  00A8               	movf	(??___flmul+0)+0,w
  3492  0616  0828               	movwf	(__Umul8_16@multiplicand)
  3493  0617  00F0               	movf	(___flmul@a),w
  3494  0618  0824               	fcall	__Umul8_16
  3495  0619  120A  118A  212D  120A  118A  	movf	(1+(?__Umul8_16)),w
  3496  061E  0871               	bcf	status, 5	;RP0=0, select bank0
  3497  061F  1283               	bcf	status, 6	;RP1=0, select bank0
  3498  0620  1303               	movwf	(___flmul@temp+1)
  3499  0621  00B9               	movf	(0+(?__Umul8_16)),w
  3500  0622  0870               	movwf	(___flmul@temp)
  3501  0623  00B8               	line	135
  3502                           	
  3503                           l1342:	
  3504  0624                     	movf	(___flmul@temp),w
  3505  0624  0838               	movwf	((??___flmul+0)+0)
  3506  0625  00A8               	movf	(___flmul@temp+1),w
  3507  0626  0839               	movwf	((??___flmul+0)+0+1)
  3508  0627  00A9               	clrf	((??___flmul+0)+0+2)
  3509  0628  01AA               	clrf	((??___flmul+0)+0+3)
  3510  0629  01AB               	movf	0+(??___flmul+0)+0,w
  3511  062A  0828               	addwf	(___flmul@grs),f
  3512  062B  07AE               	movf	1+(??___flmul+0)+0,w
  3513  062C  0829               	clrz
  3514  062D  1103               	skipnc
  3515  062E  1803               	addlw	1
  3516  062F  3E01               	skipnz
  3517  0630  1903               	goto	u1351
  3518  0631  2E33               	addwf	(___flmul@grs+1),f
  3519  0632  07AF               u1351:
  3520  0633                     	movf	2+(??___flmul+0)+0,w
  3521  0633  082A               	clrz
  3522  0634  1103               	skipnc
  3523  0635  1803               	addlw	1
  3524  0636  3E01               	skipnz
  3525  0637  1903               	goto	u1352
  3526  0638  2E3A               	addwf	(___flmul@grs+2),f
  3527  0639  07B0               u1352:
  3528  063A                     	movf	3+(??___flmul+0)+0,w
  3529  063A  082B               	clrz
  3530  063B  1103               	skipnc
  3531  063C  1803               	addlw	1
  3532  063D  3E01               	skipnz
  3533  063E  1903               	goto	u1353
  3534  063F  2E41               	addwf	(___flmul@grs+3),f
  3535  0640  07B1               u1353:
  3536  0641                     
  3537                           	line	136
  3538                           	
  3539                           l1344:	
  3540  0641                     	movf	0+(___flmul@b)+01h,w
  3541  0641  0821               	movwf	(??___flmul+0)+0
  3542  0642  00A8               	movf	(??___flmul+0)+0,w
  3543  0643  0828               	movwf	(__Umul8_16@multiplicand)
  3544  0644  00F0               	movf	0+(___flmul@a)+02h,w
  3545  0645  0826               	fcall	__Umul8_16
  3546  0646  120A  118A  212D  120A  118A  	movf	(1+(?__Umul8_16)),w
  3547  064B  0871               	bcf	status, 5	;RP0=0, select bank0
  3548  064C  1283               	bcf	status, 6	;RP1=0, select bank0
  3549  064D  1303               	movwf	(___flmul@temp+1)
  3550  064E  00B9               	movf	(0+(?__Umul8_16)),w
  3551  064F  0870               	movwf	(___flmul@temp)
  3552  0650  00B8               	line	137
  3553                           	movf	(___flmul@temp),w
  3554  0651  0838               	movwf	((??___flmul+0)+0)
  3555  0652  00A8               	movf	(___flmul@temp+1),w
  3556  0653  0839               	movwf	((??___flmul+0)+0+1)
  3557  0654  00A9               	clrf	((??___flmul+0)+0+2)
  3558  0655  01AA               	clrf	((??___flmul+0)+0+3)
  3559  0656  01AB               	movf	0+(??___flmul+0)+0,w
  3560  0657  0828               	addwf	(___flmul@prod),f
  3561  0658  07B4               	movf	1+(??___flmul+0)+0,w
  3562  0659  0829               	clrz
  3563  065A  1103               	skipnc
  3564  065B  1803               	addlw	1
  3565  065C  3E01               	skipnz
  3566  065D  1903               	goto	u1361
  3567  065E  2E60               	addwf	(___flmul@prod+1),f
  3568  065F  07B5               u1361:
  3569  0660                     	movf	2+(??___flmul+0)+0,w
  3570  0660  082A               	clrz
  3571  0661  1103               	skipnc
  3572  0662  1803               	addlw	1
  3573  0663  3E01               	skipnz
  3574  0664  1903               	goto	u1362
  3575  0665  2E67               	addwf	(___flmul@prod+2),f
  3576  0666  07B6               u1362:
  3577  0667                     	movf	3+(??___flmul+0)+0,w
  3578  0667  082B               	clrz
  3579  0668  1103               	skipnc
  3580  0669  1803               	addlw	1
  3581  066A  3E01               	skipnz
  3582  066B  1903               	goto	u1363
  3583  066C  2E6E               	addwf	(___flmul@prod+3),f
  3584  066D  07B7               u1363:
  3585  066E                     
  3586                           	line	138
  3587                           	
  3588                           l1346:	
  3589  066E                     	movf	0+(___flmul@b)+02h,w
  3590  066E  0822               	movwf	(??___flmul+0)+0
  3591  066F  00A8               	movf	(??___flmul+0)+0,w
  3592  0670  0828               	movwf	(__Umul8_16@multiplicand)
  3593  0671  00F0               	movf	0+(___flmul@a)+01h,w
  3594  0672  0825               	fcall	__Umul8_16
  3595  0673  120A  118A  212D  120A  118A  	movf	(1+(?__Umul8_16)),w
  3596  0678  0871               	bcf	status, 5	;RP0=0, select bank0
  3597  0679  1283               	bcf	status, 6	;RP1=0, select bank0
  3598  067A  1303               	movwf	(___flmul@temp+1)
  3599  067B  00B9               	movf	(0+(?__Umul8_16)),w
  3600  067C  0870               	movwf	(___flmul@temp)
  3601  067D  00B8               	line	139
  3602                           	
  3603                           l1348:	
  3604  067E                     	movf	(___flmul@temp),w
  3605  067E  0838               	movwf	((??___flmul+0)+0)
  3606  067F  00A8               	movf	(___flmul@temp+1),w
  3607  0680  0839               	movwf	((??___flmul+0)+0+1)
  3608  0681  00A9               	clrf	((??___flmul+0)+0+2)
  3609  0682  01AA               	clrf	((??___flmul+0)+0+3)
  3610  0683  01AB               	movf	0+(??___flmul+0)+0,w
  3611  0684  0828               	addwf	(___flmul@prod),f
  3612  0685  07B4               	movf	1+(??___flmul+0)+0,w
  3613  0686  0829               	clrz
  3614  0687  1103               	skipnc
  3615  0688  1803               	addlw	1
  3616  0689  3E01               	skipnz
  3617  068A  1903               	goto	u1371
  3618  068B  2E8D               	addwf	(___flmul@prod+1),f
  3619  068C  07B5               u1371:
  3620  068D                     	movf	2+(??___flmul+0)+0,w
  3621  068D  082A               	clrz
  3622  068E  1103               	skipnc
  3623  068F  1803               	addlw	1
  3624  0690  3E01               	skipnz
  3625  0691  1903               	goto	u1372
  3626  0692  2E94               	addwf	(___flmul@prod+2),f
  3627  0693  07B6               u1372:
  3628  0694                     	movf	3+(??___flmul+0)+0,w
  3629  0694  082B               	clrz
  3630  0695  1103               	skipnc
  3631  0696  1803               	addlw	1
  3632  0697  3E01               	skipnz
  3633  0698  1903               	goto	u1373
  3634  0699  2E9B               	addwf	(___flmul@prod+3),f
  3635  069A  07B7               u1373:
  3636  069B                     
  3637                           	line	140
  3638                           	movf	0+(___flmul@b)+02h,w
  3639  069B  0822               	movwf	(??___flmul+0)+0
  3640  069C  00A8               	movf	(??___flmul+0)+0,w
  3641  069D  0828               	movwf	(__Umul8_16@multiplicand)
  3642  069E  00F0               	movf	0+(___flmul@a)+02h,w
  3643  069F  0826               	fcall	__Umul8_16
  3644  06A0  120A  118A  212D  120A  118A  	movf	(1+(?__Umul8_16)),w
  3645  06A5  0871               	bcf	status, 5	;RP0=0, select bank0
  3646  06A6  1283               	bcf	status, 6	;RP1=0, select bank0
  3647  06A7  1303               	movwf	(___flmul@temp+1)
  3648  06A8  00B9               	movf	(0+(?__Umul8_16)),w
  3649  06A9  0870               	movwf	(___flmul@temp)
  3650  06AA  00B8               	line	141
  3651                           	
  3652                           l1350:	
  3653  06AB                     	movf	(___flmul@temp),w
  3654  06AB  0838               	movwf	((??___flmul+0)+0)
  3655  06AC  00A8               	movf	(___flmul@temp+1),w
  3656  06AD  0839               	movwf	((??___flmul+0)+0+1)
  3657  06AE  00A9               	clrf	((??___flmul+0)+0+2)
  3658  06AF  01AA               	clrf	((??___flmul+0)+0+3)
  3659  06B0  01AB               	movlw	08h
  3660  06B1  3008               u1385:
  3661  06B2                     	clrc
  3662  06B2  1003               	rlf	(??___flmul+0)+0,f
  3663  06B3  0DA8               	rlf	(??___flmul+0)+1,f
  3664  06B4  0DA9               	rlf	(??___flmul+0)+2,f
  3665  06B5  0DAA               	rlf	(??___flmul+0)+3,f
  3666  06B6  0DAB               u1380:
  3667  06B7                     	addlw	-1
  3668  06B7  3EFF               	skipz
  3669  06B8  1D03               	goto	u1385
  3670  06B9  2EB2               	movf	0+(??___flmul+0)+0,w
  3671  06BA  0828               	addwf	(___flmul@prod),f
  3672  06BB  07B4               	movf	1+(??___flmul+0)+0,w
  3673  06BC  0829               	clrz
  3674  06BD  1103               	skipnc
  3675  06BE  1803               	addlw	1
  3676  06BF  3E01               	skipnz
  3677  06C0  1903               	goto	u1391
  3678  06C1  2EC3               	addwf	(___flmul@prod+1),f
  3679  06C2  07B5               u1391:
  3680  06C3                     	movf	2+(??___flmul+0)+0,w
  3681  06C3  082A               	clrz
  3682  06C4  1103               	skipnc
  3683  06C5  1803               	addlw	1
  3684  06C6  3E01               	skipnz
  3685  06C7  1903               	goto	u1392
  3686  06C8  2ECA               	addwf	(___flmul@prod+2),f
  3687  06C9  07B6               u1392:
  3688  06CA                     	movf	3+(??___flmul+0)+0,w
  3689  06CA  082B               	clrz
  3690  06CB  1103               	skipnc
  3691  06CC  1803               	addlw	1
  3692  06CD  3E01               	skipnz
  3693  06CE  1903               	goto	u1393
  3694  06CF  2ED1               	addwf	(___flmul@prod+3),f
  3695  06D0  07B7               u1393:
  3696  06D1                     
  3697                           	line	145
  3698                           	
  3699                           l1352:	
  3700  06D1                     	movf	(___flmul@grs),w
  3701  06D1  082E               	movwf	(??___flmul+0)+0
  3702  06D2  00A8               	movf	(___flmul@grs+1),w
  3703  06D3  082F               	movwf	((??___flmul+0)+0+1)
  3704  06D4  00A9               	movf	(___flmul@grs+2),w
  3705  06D5  0830               	movwf	((??___flmul+0)+0+2)
  3706  06D6  00AA               	movf	(___flmul@grs+3),w
  3707  06D7  0831               	movwf	((??___flmul+0)+0+3)
  3708  06D8  00AB               	movlw	018h
  3709  06D9  3018               u1405:
  3710  06DA                     	clrc
  3711  06DA  1003               	rrf	(??___flmul+0)+3,f
  3712  06DB  0CAB               	rrf	(??___flmul+0)+2,f
  3713  06DC  0CAA               	rrf	(??___flmul+0)+1,f
  3714  06DD  0CA9               	rrf	(??___flmul+0)+0,f
  3715  06DE  0CA8               u1400:
  3716  06DF                     	addlw	-1
  3717  06DF  3EFF               	skipz
  3718  06E0  1D03               	goto	u1405
  3719  06E1  2EDA               	movf	0+(??___flmul+0)+0,w
  3720  06E2  0828               	addwf	(___flmul@prod),f
  3721  06E3  07B4               	movf	1+(??___flmul+0)+0,w
  3722  06E4  0829               	clrz
  3723  06E5  1103               	skipnc
  3724  06E6  1803               	addlw	1
  3725  06E7  3E01               	skipnz
  3726  06E8  1903               	goto	u1411
  3727  06E9  2EEB               	addwf	(___flmul@prod+1),f
  3728  06EA  07B5               u1411:
  3729  06EB                     	movf	2+(??___flmul+0)+0,w
  3730  06EB  082A               	clrz
  3731  06EC  1103               	skipnc
  3732  06ED  1803               	addlw	1
  3733  06EE  3E01               	skipnz
  3734  06EF  1903               	goto	u1412
  3735  06F0  2EF2               	addwf	(___flmul@prod+2),f
  3736  06F1  07B6               u1412:
  3737  06F2                     	movf	3+(??___flmul+0)+0,w
  3738  06F2  082B               	clrz
  3739  06F3  1103               	skipnc
  3740  06F4  1803               	addlw	1
  3741  06F5  3E01               	skipnz
  3742  06F6  1903               	goto	u1413
  3743  06F7  2EF9               	addwf	(___flmul@prod+3),f
  3744  06F8  07B7               u1413:
  3745  06F9                     
  3746                           	line	146
  3747                           	
  3748                           l1354:	
  3749  06F9                     	movlw	08h
  3750  06F9  3008               	movwf	(??___flmul+0)+0
  3751  06FA  00A8               u1425:
  3752  06FB                     	clrc
  3753  06FB  1003               	rlf	(___flmul@grs),f
  3754  06FC  0DAE               	rlf	(___flmul@grs+1),f
  3755  06FD  0DAF               	rlf	(___flmul@grs+2),f
  3756  06FE  0DB0               	rlf	(___flmul@grs+3),f
  3757  06FF  0DB1               	decfsz	(??___flmul+0)+0
  3758  0700  0BA8               	goto	u1425
  3759  0701  2EFB               	line	149
  3760                           	
  3761                           l1356:	
  3762  0702                     	movf	(___flmul@bexp),w
  3763  0702  0833               	addwf	(___flmul@aexp),w
  3764  0703  0732               	movwf	(??___flmul+0)+0
  3765  0704  00A8               	clrf	(??___flmul+0)+0+1
  3766  0705  01A9               	rlf	1+(??___flmul+0)+0,f
  3767  0706  0DA9               	
  3768                           	movf	0+(??___flmul+0)+0,w
  3769  0707  0828               	addlw	low(-126)
  3770  0708  3E82               	movwf	(___flmul@temp)
  3771  0709  00B8               	movf	1+(??___flmul+0)+0,w
  3772  070A  0829               	skipnc
  3773  070B  1803               	addlw	1
  3774  070C  3E01               	addlw	high(-126)
  3775  070D  3EFF               	movwf	1+(___flmul@temp)
  3776  070E  00B9               	line	152
  3777                           	goto	l1368
  3778  070F  2F2F               	
  3779                           l624:	
  3780  0710                     	line	153
  3781                           	
  3782                           l1358:	
  3783  0710                     	movlw	01h
  3784  0710  3001               	movwf	(??___flmul+0)+0
  3785  0711  00A8               u1435:
  3786  0712                     	clrc
  3787  0712  1003               	rlf	(___flmul@prod),f
  3788  0713  0DB4               	rlf	(___flmul@prod+1),f
  3789  0714  0DB5               	rlf	(___flmul@prod+2),f
  3790  0715  0DB6               	rlf	(___flmul@prod+3),f
  3791  0716  0DB7               	decfsz	(??___flmul+0)+0
  3792  0717  0BA8               	goto	u1435
  3793  0718  2F12               	line	154
  3794                           	
  3795                           l1360:	
  3796  0719                     	btfss	(___flmul@grs+3),(31)&7
  3797  0719  1FB1               	goto	u1441
  3798  071A  2F1C               	goto	u1440
  3799  071B  2F1D               u1441:
  3800  071C                     	goto	l1364
  3801  071C  2F1F               u1440:
  3802  071D                     	line	155
  3803                           	
  3804                           l1362:	
  3805  071D                     	bsf	(___flmul@prod)+(0/8),(0)&7
  3806  071D  1434               	goto	l1364
  3807  071E  2F1F               	line	156
  3808                           	
  3809                           l625:	
  3810  071F                     	line	157
  3811                           	
  3812                           l1364:	
  3813  071F                     	movlw	01h
  3814  071F  3001               	movwf	(??___flmul+0)+0
  3815  0720  00A8               u1455:
  3816  0721                     	clrc
  3817  0721  1003               	rlf	(___flmul@grs),f
  3818  0722  0DAE               	rlf	(___flmul@grs+1),f
  3819  0723  0DAF               	rlf	(___flmul@grs+2),f
  3820  0724  0DB0               	rlf	(___flmul@grs+3),f
  3821  0725  0DB1               	decfsz	(??___flmul+0)+0
  3822  0726  0BA8               	goto	u1455
  3823  0727  2F21               	line	158
  3824                           	
  3825                           l1366:	
  3826  0728                     	movlw	0FFh
  3827  0728  30FF               	addwf	(___flmul@temp),f
  3828  0729  07B8               	skipnc
  3829  072A  1803               	incf	(___flmul@temp+1),f
  3830  072B  0AB9               	movlw	0FFh
  3831  072C  30FF               	addwf	(___flmul@temp+1),f
  3832  072D  07B9               	goto	l1368
  3833  072E  2F2F               	line	159
  3834                           	
  3835                           l623:	
  3836  072F                     	line	152
  3837                           	
  3838                           l1368:	
  3839  072F                     	btfss	(___flmul@prod+2),(23)&7
  3840  072F  1FB6               	goto	u1461
  3841  0730  2F32               	goto	u1460
  3842  0731  2F33               u1461:
  3843  0732                     	goto	l1358
  3844  0732  2F10               u1460:
  3845  0733                     	goto	l1370
  3846  0733  2F34               	
  3847                           l626:	
  3848  0734                     	line	163
  3849                           	
  3850                           l1370:	
  3851  0734                     	clrf	(___flmul@aexp)
  3852  0734  01B2               	line	164
  3853                           	
  3854                           l1372:	
  3855  0735                     	btfss	(___flmul@grs+3),(31)&7
  3856  0735  1FB1               	goto	u1471
  3857  0736  2F38               	goto	u1470
  3858  0737  2F39               u1471:
  3859  0738                     	goto	l1380
  3860  0738  2F59               u1470:
  3861  0739                     	line	165
  3862                           	
  3863                           l1374:	
  3864  0739                     	movlw	0FFh
  3865  0739  30FF               	andwf	(___flmul@grs),w
  3866  073A  052E               	movwf	(??___flmul+0)+0
  3867  073B  00A8               	movlw	0FFh
  3868  073C  30FF               	andwf	(___flmul@grs+1),w
  3869  073D  052F               	movwf	((??___flmul+0)+0+1)
  3870  073E  00A9               	movlw	0FFh
  3871  073F  30FF               	andwf	(___flmul@grs+2),w
  3872  0740  0530               	movwf	((??___flmul+0)+0+2)
  3873  0741  00AA               	movlw	07Fh
  3874  0742  307F               	andwf	(___flmul@grs+3),w
  3875  0743  0531               	movwf	((??___flmul+0)+0+3)
  3876  0744  00AB               	movf	3+(??___flmul+0)+0,w
  3877  0745  082B               	iorwf	2+(??___flmul+0)+0,w
  3878  0746  042A               	iorwf	1+(??___flmul+0)+0,w
  3879  0747  0429               	iorwf	0+(??___flmul+0)+0,w
  3880  0748  0428               	skipnz
  3881  0749  1903               	goto	u1481
  3882  074A  2F4C               	goto	u1480
  3883  074B  2F4D               u1481:
  3884  074C                     	goto	l628
  3885  074C  2F50               u1480:
  3886  074D                     	line	166
  3887                           	
  3888                           l1376:	
  3889  074D                     	clrf	(___flmul@aexp)
  3890  074D  01B2               	incf	(___flmul@aexp),f
  3891  074E  0AB2               	line	167
  3892                           	goto	l1380
  3893  074F  2F59               	line	168
  3894                           	
  3895                           l628:	
  3896  0750                     	line	169
  3897                           	btfss	(___flmul@prod),(0)&7
  3898  0750  1C34               	goto	u1491
  3899  0751  2F53               	goto	u1490
  3900  0752  2F54               u1491:
  3901  0753                     	goto	l1380
  3902  0753  2F59               u1490:
  3903  0754                     	line	170
  3904                           	
  3905                           l1378:	
  3906  0754                     	clrf	(___flmul@aexp)
  3907  0754  01B2               	incf	(___flmul@aexp),f
  3908  0755  0AB2               	goto	l1380
  3909  0756  2F59               	line	171
  3910                           	
  3911                           l630:	
  3912  0757                     	goto	l1380
  3913  0757  2F59               	line	172
  3914                           	
  3915                           l629:	
  3916  0758                     	goto	l1380
  3917  0758  2F59               	line	173
  3918                           	
  3919                           l627:	
  3920  0759                     	line	174
  3921                           	
  3922                           l1380:	
  3923  0759                     	movf	((___flmul@aexp)),w
  3924  0759  0832               	btfsc	status,2
  3925  075A  1903               	goto	u1501
  3926  075B  2F5D               	goto	u1500
  3927  075C  2F5E               u1501:
  3928  075D                     	goto	l1390
  3929  075D  2F91               u1500:
  3930  075E                     	line	175
  3931                           	
  3932                           l1382:	
  3933  075E                     	movlw	01h
  3934  075E  3001               	addwf	(___flmul@prod),f
  3935  075F  07B4               	movlw	0
  3936  0760  3000               	skipnc
  3937  0761  1803               movlw 1
  3938  0762  3001               	addwf	(___flmul@prod+1),f
  3939  0763  07B5               	movlw	0
  3940  0764  3000               	skipnc
  3941  0765  1803               movlw 1
  3942  0766  3001               	addwf	(___flmul@prod+2),f
  3943  0767  07B6               	movlw	0
  3944  0768  3000               	skipnc
  3945  0769  1803               movlw 1
  3946  076A  3001               	addwf	(___flmul@prod+3),f
  3947  076B  07B7               	line	176
  3948                           	
  3949                           l1384:	
  3950  076C                     	btfss	(___flmul@prod+3),(24)&7
  3951  076C  1C37               	goto	u1511
  3952  076D  2F6F               	goto	u1510
  3953  076E  2F70               u1511:
  3954  076F                     	goto	l1390
  3955  076F  2F91               u1510:
  3956  0770                     	line	177
  3957                           	
  3958                           l1386:	
  3959  0770                     	movf	(___flmul@prod),w
  3960  0770  0834               	movwf	(??___flmul+0)+0
  3961  0771  00A8               	movf	(___flmul@prod+1),w
  3962  0772  0835               	movwf	((??___flmul+0)+0+1)
  3963  0773  00A9               	movf	(___flmul@prod+2),w
  3964  0774  0836               	movwf	((??___flmul+0)+0+2)
  3965  0775  00AA               	movf	(___flmul@prod+3),w
  3966  0776  0837               	movwf	((??___flmul+0)+0+3)
  3967  0777  00AB               	movlw	01h
  3968  0778  3001               	movwf	(??___flmul+4)+0
  3969  0779  00AC               u1525:
  3970  077A                     	rlf	(??___flmul+0)+3,w
  3971  077A  0D2B               	rrf	(??___flmul+0)+3,f
  3972  077B  0CAB               	rrf	(??___flmul+0)+2,f
  3973  077C  0CAA               	rrf	(??___flmul+0)+1,f
  3974  077D  0CA9               	rrf	(??___flmul+0)+0,f
  3975  077E  0CA8               u1520:
  3976  077F                     	decfsz	(??___flmul+4)+0,f
  3977  077F  0BAC               	goto	u1525
  3978  0780  2F7A               	movf	3+(??___flmul+0)+0,w
  3979  0781  082B               	movwf	(___flmul@prod+3)
  3980  0782  00B7               	movf	2+(??___flmul+0)+0,w
  3981  0783  082A               	movwf	(___flmul@prod+2)
  3982  0784  00B6               	movf	1+(??___flmul+0)+0,w
  3983  0785  0829               	movwf	(___flmul@prod+1)
  3984  0786  00B5               	movf	0+(??___flmul+0)+0,w
  3985  0787  0828               	movwf	(___flmul@prod)
  3986  0788  00B4               
  3987                           	line	178
  3988                           	
  3989                           l1388:	
  3990  0789                     	movlw	01h
  3991  0789  3001               	addwf	(___flmul@temp),f
  3992  078A  07B8               	skipnc
  3993  078B  1803               	incf	(___flmul@temp+1),f
  3994  078C  0AB9               	movlw	0
  3995  078D  3000               	addwf	(___flmul@temp+1),f
  3996  078E  07B9               	goto	l1390
  3997  078F  2F91               	line	179
  3998                           	
  3999                           l632:	
  4000  0790                     	goto	l1390
  4001  0790  2F91               	line	180
  4002                           	
  4003                           l631:	
  4004  0791                     	line	183
  4005                           	
  4006                           l1390:	
  4007  0791                     	movf	(___flmul@temp+1),w
  4008  0791  0839               	xorlw	80h
  4009  0792  3A80               	movwf	btemp+1
  4010  0793  00FF               	movlw	(0)^80h
  4011  0794  3080               	subwf	btemp+1,w
  4012  0795  027F               	skipz
  4013  0796  1D03               	goto	u1535
  4014  0797  2F9A               	movlw	0FFh
  4015  0798  30FF               	subwf	(___flmul@temp),w
  4016  0799  0238               u1535:
  4017  079A                     
  4018                           	skipc
  4019  079A  1C03               	goto	u1531
  4020  079B  2F9D               	goto	u1530
  4021  079C  2F9E               u1531:
  4022  079D                     	goto	l1394
  4023  079D  2FA9               u1530:
  4024  079E                     	line	184
  4025                           	
  4026                           l1392:	
  4027  079E                     	movlw	07Fh
  4028  079E  307F               	bcf	status, 5	;RP0=0, select bank0
  4029  079F  1283               	bcf	status, 6	;RP1=0, select bank0
  4030  07A0  1303               	movwf	(___flmul@prod+3)
  4031  07A1  00B7               	movlw	080h
  4032  07A2  3080               	movwf	(___flmul@prod+2)
  4033  07A3  00B6               	movlw	0
  4034  07A4  3000               	movwf	(___flmul@prod+1)
  4035  07A5  00B5               	movlw	0
  4036  07A6  3000               	movwf	(___flmul@prod)
  4037  07A7  00B4               
  4038                           	line	185
  4039                           	goto	l634
  4040  07A8  2FE0               	line	187
  4041                           	
  4042                           l633:	
  4043  07A9                     	
  4044                           l1394:	
  4045  07A9                     	bcf	status, 5	;RP0=0, select bank0
  4046  07A9  1283               	bcf	status, 6	;RP1=0, select bank0
  4047  07AA  1303               	movf	(___flmul@temp+1),w
  4048  07AB  0839               	xorlw	80h
  4049  07AC  3A80               	movwf	btemp+1
  4050  07AD  00FF               	movlw	(0)^80h
  4051  07AE  3080               	subwf	btemp+1,w
  4052  07AF  027F               	skipz
  4053  07B0  1D03               	goto	u1545
  4054  07B1  2FB4               	movlw	01h
  4055  07B2  3001               	subwf	(___flmul@temp),w
  4056  07B3  0238               u1545:
  4057  07B4                     
  4058                           	skipnc
  4059  07B4  1803               	goto	u1541
  4060  07B5  2FB7               	goto	u1540
  4061  07B6  2FB8               u1541:
  4062  07B7                     	goto	l1400
  4063  07B7  2FC4               u1540:
  4064  07B8                     	line	188
  4065                           	
  4066                           l1396:	
  4067  07B8                     	movlw	high highword(0)
  4068  07B8  3000               	bcf	status, 5	;RP0=0, select bank0
  4069  07B9  1283               	bcf	status, 6	;RP1=0, select bank0
  4070  07BA  1303               	movwf	(___flmul@prod+3)
  4071  07BB  00B7               	movlw	low highword(0)
  4072  07BC  3000               	movwf	(___flmul@prod+2)
  4073  07BD  00B6               	movlw	high(0)
  4074  07BE  3000               	movwf	(___flmul@prod+1)
  4075  07BF  00B5               	movlw	low(0)
  4076  07C0  3000               	movwf	(___flmul@prod)
  4077  07C1  00B4               
  4078                           	line	190
  4079                           	
  4080                           l1398:	
  4081  07C2                     	clrf	(___flmul@sign)
  4082  07C2  01AD               	line	191
  4083                           	goto	l634
  4084  07C3  2FE0               	line	192
  4085                           	
  4086                           l635:	
  4087  07C4                     	line	194
  4088                           	
  4089                           l1400:	
  4090  07C4                     	bcf	status, 5	;RP0=0, select bank0
  4091  07C4  1283               	bcf	status, 6	;RP1=0, select bank0
  4092  07C5  1303               	movf	(___flmul@temp),w
  4093  07C6  0838               	movwf	(??___flmul+0)+0
  4094  07C7  00A8               	movf	(??___flmul+0)+0,w
  4095  07C8  0828               	movwf	(___flmul@bexp)
  4096  07C9  00B3               	line	195
  4097                           	movlw	0FFh
  4098  07CA  30FF               	andwf	(___flmul@prod),f
  4099  07CB  05B4               	movlw	0FFh
  4100  07CC  30FF               	andwf	(___flmul@prod+1),f
  4101  07CD  05B5               	movlw	07Fh
  4102  07CE  307F               	andwf	(___flmul@prod+2),f
  4103  07CF  05B6               	movlw	0
  4104  07D0  3000               	andwf	(___flmul@prod+3),f
  4105  07D1  05B7               	line	196
  4106                           	
  4107                           l1402:	
  4108  07D2                     	btfss	(___flmul@bexp),(0)&7
  4109  07D2  1C33               	goto	u1551
  4110  07D3  2FD5               	goto	u1550
  4111  07D4  2FD6               u1551:
  4112  07D5                     	goto	l1406
  4113  07D5  2FD8               u1550:
  4114  07D6                     	line	197
  4115                           	
  4116                           l1404:	
  4117  07D6                     	bsf	0+(___flmul@prod)+02h+(7/8),(7)&7
  4118  07D6  17B6               	goto	l1406
  4119  07D7  2FD8               	line	198
  4120                           	
  4121                           l637:	
  4122  07D8                     	line	199
  4123                           	
  4124                           l1406:	
  4125  07D8                     	movf	(___flmul@bexp),w
  4126  07D8  0833               	movwf	(??___flmul+0)+0
  4127  07D9  00A8               	clrc
  4128  07DA  1003               	rrf	(??___flmul+0)+0,w
  4129  07DB  0C28               	movwf	(??___flmul+1)+0
  4130  07DC  00A9               	movf	(??___flmul+1)+0,w
  4131  07DD  0829               	movwf	0+(___flmul@prod)+03h
  4132  07DE  00B7               	goto	l634
  4133  07DF  2FE0               	line	200
  4134                           	
  4135                           l636:	
  4136  07E0                     	
  4137                           l634:	
  4138  07E0                     	line	201
  4139                           	movf	(___flmul@sign),w
  4140  07E0  082D               	movwf	(??___flmul+0)+0
  4141  07E1  00A8               	movf	(??___flmul+0)+0,w
  4142  07E2  0828               	iorwf	0+(___flmul@prod)+03h,f
  4143  07E3  04B7               	line	203
  4144                           	
  4145                           l1408:	
  4146  07E4                     	movf	(___flmul@prod+3),w
  4147  07E4  0837               	movwf	(?___flmul+3)
  4148  07E5  00A3               	movf	(___flmul@prod+2),w
  4149  07E6  0836               	movwf	(?___flmul+2)
  4150  07E7  00A2               	movf	(___flmul@prod+1),w
  4151  07E8  0835               	movwf	(?___flmul+1)
  4152  07E9  00A1               	movf	(___flmul@prod),w
  4153  07EA  0834               	movwf	(?___flmul)
  4154  07EB  00A0               
  4155                           	goto	l622
  4156  07EC  2FED               	
  4157                           l1410:	
  4158  07ED                     	line	205
  4159                           	
  4160                           l622:	
  4161  07ED                     	return
  4162  07ED  0008               	opt stack 0
  4163                           GLOBAL	__end_of___flmul
  4164                           	__end_of___flmul:
  4165  07EE                     	signat	___flmul,8316
  4166                           	global	__Umul8_16
  4167                           
  4168 ;; *************** function __Umul8_16 *****************
  4169 ;; Defined at:
  4170 ;;		line 4 in file "C:\Program Files (x86)\Microchip\xc8\v2.00\pic\sources\c90\common\Umul8_16.c"
  4171 ;; Parameters:    Size  Location     Type
  4172 ;;  multiplier      1    wreg     unsigned char 
  4173 ;;  multiplicand    1    0[COMMON] unsigned char 
  4174 ;; Auto vars:     Size  Location     Type
  4175 ;;  multiplier      1    8[COMMON] unsigned char 
  4176 ;;  word_mpld       2    6[COMMON] unsigned int 
  4177 ;;  product         2    4[COMMON] unsigned int 
  4178 ;; Return value:  Size  Location     Type
  4179 ;;                  2    0[COMMON] unsigned int 
  4180 ;; Registers used:
  4181 ;;		wreg, status,2, status,0
  4182 ;; Tracked objects:
  4183 ;;		On entry : 0/0
  4184 ;;		On exit  : 0/0
  4185 ;;		Unchanged: 0/0
  4186 ;; Data sizes:     COMMON   BANK0   BANK1   BANK3   BANK2
  4187 ;;      Params:         2       0       0       0       0
  4188 ;;      Locals:         5       0       0       0       0
  4189 ;;      Temps:          2       0       0       0       0
  4190 ;;      Totals:         9       0       0       0       0
  4191 ;;Total ram usage:        9 bytes
  4192 ;; Hardware stack levels used:    1
  4193 ;; This function calls:
  4194 ;;		Nothing
  4195 ;; This function is called by:
  4196 ;;		___flmul
  4197 ;; This function uses a non-reentrant model
  4198 ;;
  4199                           psect	text9,local,class=CODE,delta=2,merge=1,group=1
  4200                           	file	"C:\Program Files (x86)\Microchip\xc8\v2.00\pic\sources\c90\common\Umul8_16.c"
  4201                           	line	4
  4202                           global __ptext9
  4203                           __ptext9:	;psect for function __Umul8_16
  4204  012D                     psect	text9
  4205                           	file	"C:\Program Files (x86)\Microchip\xc8\v2.00\pic\sources\c90\common\Umul8_16.c"
  4206                           	line	4
  4207                           	global	__size_of__Umul8_16
  4208                           	__size_of__Umul8_16	equ	__end_of__Umul8_16-__Umul8_16
  4209  002A                     	
  4210                           __Umul8_16:	
  4211  012D                     ;incstack = 0
  4212                           	opt	stack 5
  4213                           ; Regs used in __Umul8_16: [wreg+status,2+status,0]
  4214                           ;__Umul8_16@multiplier stored from wreg
  4215                           	movwf	(__Umul8_16@multiplier)
  4216  012D  00F8               	line	5
  4217                           	
  4218                           l1220:	
  4219  012E                     	clrf	(__Umul8_16@product)
  4220  012E  01F4               	clrf	(__Umul8_16@product+1)
  4221  012F  01F5               	line	6
  4222                           	
  4223                           l1222:	
  4224  0130                     	movf	(__Umul8_16@multiplicand),w
  4225  0130  0870               	movwf	(??__Umul8_16+0)+0
  4226  0131  00F2               	clrf	(??__Umul8_16+0)+0+1
  4227  0132  01F3               	movf	0+(??__Umul8_16+0)+0,w
  4228  0133  0872               	movwf	(__Umul8_16@word_mpld)
  4229  0134  00F6               	movf	1+(??__Umul8_16+0)+0,w
  4230  0135  0873               	movwf	(__Umul8_16@word_mpld+1)
  4231  0136  00F7               	goto	l1224
  4232  0137  2938               	line	50
  4233                           	
  4234                           l659:	
  4235  0138                     	line	51
  4236                           	
  4237                           l1224:	
  4238  0138                     	btfss	(__Umul8_16@multiplier),(0)&7
  4239  0138  1C78               	goto	u1051
  4240  0139  293B               	goto	u1050
  4241  013A  293C               u1051:
  4242  013B                     	goto	l660
  4243  013B  2942               u1050:
  4244  013C                     	line	52
  4245                           	
  4246                           l1226:	
  4247  013C                     	movf	(__Umul8_16@word_mpld),w
  4248  013C  0876               	addwf	(__Umul8_16@product),f
  4249  013D  07F4               	skipnc
  4250  013E  1803               	incf	(__Umul8_16@product+1),f
  4251  013F  0AF5               	movf	(__Umul8_16@word_mpld+1),w
  4252  0140  0877               	addwf	(__Umul8_16@product+1),f
  4253  0141  07F5               	line	53
  4254                           	
  4255                           l660:	
  4256  0142                     	line	54
  4257                           	movlw	01h
  4258  0142  3001               	
  4259                           u1065:
  4260  0143                     	clrc
  4261  0143  1003               	rlf	(__Umul8_16@word_mpld),f
  4262  0144  0DF6               	rlf	(__Umul8_16@word_mpld+1),f
  4263  0145  0DF7               	addlw	-1
  4264  0146  3EFF               	skipz
  4265  0147  1D03               	goto	u1065
  4266  0148  2943               	line	55
  4267                           	clrc
  4268  0149  1003               	rrf	(__Umul8_16@multiplier),f
  4269  014A  0CF8               
  4270                           	line	56
  4271                           	
  4272                           l1228:	
  4273  014B                     	movf	((__Umul8_16@multiplier)),w
  4274  014B  0878               	btfss	status,2
  4275  014C  1D03               	goto	u1071
  4276  014D  294F               	goto	u1070
  4277  014E  2950               u1071:
  4278  014F                     	goto	l1224
  4279  014F  2938               u1070:
  4280  0150                     	goto	l1230
  4281  0150  2951               	
  4282                           l661:	
  4283  0151                     	line	59
  4284                           	
  4285                           l1230:	
  4286  0151                     	movf	(__Umul8_16@product+1),w
  4287  0151  0875               	movwf	(?__Umul8_16+1)
  4288  0152  00F1               	movf	(__Umul8_16@product),w
  4289  0153  0874               	movwf	(?__Umul8_16)
  4290  0154  00F0               	goto	l662
  4291  0155  2956               	
  4292                           l1232:	
  4293  0156                     	line	60
  4294                           	
  4295                           l662:	
  4296  0156                     	return
  4297  0156  0008               	opt stack 0
  4298                           GLOBAL	__end_of__Umul8_16
  4299                           	__end_of__Umul8_16:
  4300  0157                     	signat	__Umul8_16,8314
  4301                           	global	___wmul
  4302                           
  4303 ;; *************** function ___wmul *****************
  4304 ;; Defined at:
  4305 ;;		line 15 in file "C:\Program Files (x86)\Microchip\xc8\v2.00\pic\sources\c90\common\Umul16.c"
  4306 ;; Parameters:    Size  Location     Type
  4307 ;;  multiplier      2    0[COMMON] unsigned int 
  4308 ;;  multiplicand    2    2[COMMON] unsigned int 
  4309 ;; Auto vars:     Size  Location     Type
  4310 ;;  product         2    4[COMMON] unsigned int 
  4311 ;; Return value:  Size  Location     Type
  4312 ;;                  2    0[COMMON] unsigned int 
  4313 ;; Registers used:
  4314 ;;		wreg, status,2, status,0
  4315 ;; Tracked objects:
  4316 ;;		On entry : 0/0
  4317 ;;		On exit  : 0/0
  4318 ;;		Unchanged: 0/0
  4319 ;; Data sizes:     COMMON   BANK0   BANK1   BANK3   BANK2
  4320 ;;      Params:         4       0       0       0       0
  4321 ;;      Locals:         2       0       0       0       0
  4322 ;;      Temps:          0       0       0       0       0
  4323 ;;      Totals:         6       0       0       0       0
  4324 ;;Total ram usage:        6 bytes
  4325 ;; Hardware stack levels used:    1
  4326 ;; This function calls:
  4327 ;;		Nothing
  4328 ;; This function is called by:
  4329 ;;		_main
  4330 ;; This function uses a non-reentrant model
  4331 ;;
  4332                           psect	text10,local,class=CODE,delta=2,merge=1,group=1
  4333                           	file	"C:\Program Files (x86)\Microchip\xc8\v2.00\pic\sources\c90\common\Umul16.c"
  4334                           	line	15
  4335                           global __ptext10
  4336                           __ptext10:	;psect for function ___wmul
  4337  0105                     psect	text10
  4338                           	file	"C:\Program Files (x86)\Microchip\xc8\v2.00\pic\sources\c90\common\Umul16.c"
  4339                           	line	15
  4340                           	global	__size_of___wmul
  4341                           	__size_of___wmul	equ	__end_of___wmul-___wmul
  4342  0028                     	
  4343                           ___wmul:	
  4344  0105                     ;incstack = 0
  4345                           	opt	stack 7
  4346                           ; Regs used in ___wmul: [wreg+status,2+status,0]
  4347                           	line	43
  4348                           	
  4349                           l1510:	
  4350  0105                     	clrf	(___wmul@product)
  4351  0105  01F4               	clrf	(___wmul@product+1)
  4352  0106  01F5               	goto	l1512
  4353  0107  2908               	line	44
  4354                           	
  4355                           l232:	
  4356  0108                     	line	45
  4357                           	
  4358                           l1512:	
  4359  0108                     	btfss	(___wmul@multiplier),(0)&7
  4360  0108  1C70               	goto	u1761
  4361  0109  290B               	goto	u1760
  4362  010A  290C               u1761:
  4363  010B                     	goto	l233
  4364  010B  2912               u1760:
  4365  010C                     	line	46
  4366                           	
  4367                           l1514:	
  4368  010C                     	movf	(___wmul@multiplicand),w
  4369  010C  0872               	addwf	(___wmul@product),f
  4370  010D  07F4               	skipnc
  4371  010E  1803               	incf	(___wmul@product+1),f
  4372  010F  0AF5               	movf	(___wmul@multiplicand+1),w
  4373  0110  0873               	addwf	(___wmul@product+1),f
  4374  0111  07F5               	
  4375                           l233:	
  4376  0112                     	line	47
  4377                           	movlw	01h
  4378  0112  3001               	
  4379                           u1775:
  4380  0113                     	clrc
  4381  0113  1003               	rlf	(___wmul@multiplicand),f
  4382  0114  0DF2               	rlf	(___wmul@multiplicand+1),f
  4383  0115  0DF3               	addlw	-1
  4384  0116  3EFF               	skipz
  4385  0117  1D03               	goto	u1775
  4386  0118  2913               	line	48
  4387                           	
  4388                           l1516:	
  4389  0119                     	movlw	01h
  4390  0119  3001               	
  4391                           u1785:
  4392  011A                     	clrc
  4393  011A  1003               	rrf	(___wmul@multiplier+1),f
  4394  011B  0CF1               	rrf	(___wmul@multiplier),f
  4395  011C  0CF0               	addlw	-1
  4396  011D  3EFF               	skipz
  4397  011E  1D03               	goto	u1785
  4398  011F  291A               	line	49
  4399                           	
  4400                           l1518:	
  4401  0120                     	movf	((___wmul@multiplier)),w
  4402  0120  0870               iorwf	((___wmul@multiplier+1)),w
  4403  0121  0471               	btfss	status,2
  4404  0122  1D03               	goto	u1791
  4405  0123  2925               	goto	u1790
  4406  0124  2926               u1791:
  4407  0125                     	goto	l1512
  4408  0125  2908               u1790:
  4409  0126                     	goto	l1520
  4410  0126  2927               	
  4411                           l234:	
  4412  0127                     	line	52
  4413                           	
  4414                           l1520:	
  4415  0127                     	movf	(___wmul@product+1),w
  4416  0127  0875               	movwf	(?___wmul+1)
  4417  0128  00F1               	movf	(___wmul@product),w
  4418  0129  0874               	movwf	(?___wmul)
  4419  012A  00F0               	goto	l235
  4420  012B  292C               	
  4421                           l1522:	
  4422  012C                     	line	53
  4423                           	
  4424                           l235:	
  4425  012C                     	return
  4426  012C  0008               	opt stack 0
  4427                           GLOBAL	__end_of___wmul
  4428                           	__end_of___wmul:
  4429  012D                     	signat	___wmul,8314
  4430                           global	___latbits
  4431                           ___latbits	equ	2
  4432  0002                     	global	btemp
  4433                           	btemp set 07Eh
  4434  007E                     
  4435                           	DABS	1,126,2	;btemp
  4436                           	global	wtemp0
  4437                           	wtemp0 set btemp+0
  4438  007E                     	end


Data Sizes:
    Strings     71
    Constant    0
    Data        17
    BSS         0
    Persistent  0
    Stack       0

Auto Spaces:
    Space          Size  Autos    Used
    COMMON           14     14      14
    BANK0            80     52      69
    BANK1            80      0       0
    BANK3            96      0       0
    BANK2            96      0       0

Pointer List with Targets:

    uartTXT@texto	PTR const unsigned char  size(1) Largest target is 19
		 -> STR_7(CODE[13]), STR_6(CODE[13]), STR_5(CODE[3]), STR_4(CODE[11]), 
		 -> STR_3(CODE[3]), STR_2(CODE[19]), STR_1(CODE[15]), 


Critical Paths under _main in COMMON

    _uartTXT->_uartTXC
    _motorPasso->___xxtofl
    ___fltol->___xxtofl
    ___flmul->___xxtofl

Critical Paths under _main in BANK0

    _main->_motorPasso
    _motorPasso->___fltol
    ___fltol->___flmul

Critical Paths under _main in BANK1

    None.

Critical Paths under _main in BANK3

    None.

Critical Paths under _main in BANK2

    None.

Call Graph Tables:

 ---------------------------------------------------------------------------------
 (Depth) Function   	        Calls       Base Space   Used Autos Params    Refs
 ---------------------------------------------------------------------------------
 (0) _main                                                 8     8      0    5516
                                             44 BANK0      8     8      0
                             ___wmul
                         _motorPasso
                        _uartIniciar
                            _uartRXC
                            _uartTXC
                            _uartTXT
 ---------------------------------------------------------------------------------
 (1) _uartTXT                                              3     3      0     343
                                              1 COMMON     3     3      0
                            _uartTXC
 ---------------------------------------------------------------------------------
 (2) _uartTXC                                              1     1      0      22
                                              0 COMMON     1     1      0
 ---------------------------------------------------------------------------------
 (1) _uartRXC                                              4     4      0      49
                                              0 COMMON     4     4      0
 ---------------------------------------------------------------------------------
 (1) _uartIniciar                                          0     0      0       0
 ---------------------------------------------------------------------------------
 (1) _motorPasso                                           7     4      3    4015
                                             37 BANK0      7     4      3
                            ___flmul
                            ___fltol
                           ___xxtofl
 ---------------------------------------------------------------------------------
 (2) ___xxtofl                                            14    10      4     474
                                              0 COMMON    14    10      4
 ---------------------------------------------------------------------------------
 (2) ___fltol                                             11     7      4     381
                                             26 BANK0     11     7      4
                            ___flmul (ARG)
                           ___xxtofl (ARG)
 ---------------------------------------------------------------------------------
 (2) ___flmul                                             26    18      8    2569
                                              0 BANK0     26    18      8
                          __Umul8_16
                           ___xxtofl (ARG)
 ---------------------------------------------------------------------------------
 (3) __Umul8_16                                            9     7      2     799
                                              0 COMMON     9     7      2
 ---------------------------------------------------------------------------------
 (1) ___wmul                                               6     2      4     548
                                              0 COMMON     6     2      4
 ---------------------------------------------------------------------------------
 Estimated maximum stack depth 3
 ---------------------------------------------------------------------------------

 Call Graph Graphs:

 _main (ROOT)
   ___wmul
   _motorPasso
     ___flmul
       __Umul8_16
       ___xxtofl (ARG)
     ___fltol
       ___flmul (ARG)
         __Umul8_16
         ___xxtofl (ARG)
       ___xxtofl (ARG)
     ___xxtofl
   _uartIniciar
   _uartRXC
   _uartTXC
   _uartTXT
     _uartTXC

 Address spaces:
Name               Size   Autos  Total    Cost      Usage
BANK3               60      0       0       9        0.0%
BITBANK3            60      0       0       8        0.0%
SFR3                 0      0       0       4        0.0%
BITSFR3              0      0       0       4        0.0%
BANK2               60      0       0      11        0.0%
BITBANK2            60      0       0      10        0.0%
SFR2                 0      0       0       5        0.0%
BITSFR2              0      0       0       5        0.0%
BANK1               50      0       0       7        0.0%
BITBANK1            50      0       0       6        0.0%
SFR1                 0      0       0       2        0.0%
BITSFR1              0      0       0       2        0.0%
BANK0               50     34      45       5       86.3%
BITBANK0            50      0       0       4        0.0%
SFR0                 0      0       0       1        0.0%
BITSFR0              0      0       0       1        0.0%
COMMON               E      E       E       1      100.0%
BITCOMMON            E      0       0       0        0.0%
CODE                 0      0       0       0        0.0%
DATA                 0      0      53      12        0.0%
ABS                  0      0      53       3        0.0%
NULL                 0      0       0       0        0.0%
STACK                0      0       0       2        0.0%
EEDATA             100      0       0       0        0.0%


Microchip Technology PIC Macro Assembler V2.00 build -1524193055 
Symbol Table                                                                                   Mon Apr 17 15:32:00 2023

                      pc 0002              __CFG_CP$OFF 0000                       l99 01BD  
                     fsr 0004      ___wmul@multiplicand 0072      __Umul8_16@word_mpld 0076  
                    l100 0194                      l101 01A1                      l102 01A9  
                    l110 007F                      l103 01C8                      l111 007F  
                    l104 01C8                      l120 00DA                      l112 0086  
                    l121 00E0                      l113 0086                      l107 00AA  
                    l116 00DE                      l124 00F6                      l140 03D8  
                    l132 03B3                      l117 00D5                      l125 00E4  
                    l141 046D                      l133 033E                      l118 00C9  
                    l126 0104                      l142 041D                      l134 03B2  
                    l119 00D5                      l127 0104                      l143 042F  
                    l135 0378                      l232 0108                      l144 044F  
                    l136 0398                      l233 0112                      l145 046C  
                    l137 03AD                      l234 0127                      l146 0476  
                    l138 03BC                      l235 012C                      l147 0476  
                    l139 046E                      l420 0231                      l421 021D  
                    l422 021E                      l423 0230                      l424 0254  
                    l425 0241                      l426 024D                      l418 01E8  
                    l611 048C                      l427 0242                      l419 0264  
                    l612 04A1                      l428 0253                      l621 04E4  
                    l613 049F                      l429 0264                      l630 0757  
                    l622 07ED                      l614 04AA                      l631 0791  
                    l623 072F                      l615 04BB                      l632 0790  
                    l624 0710                      l616 04D0                      l640 027F  
                    l633 07A9                      l625 071F                      l617 04CE  
                    l641 0287                      l634 07E0                      l626 0734  
                    l618 04D9                      l650 02E3                      l642 0299  
                    l635 07C4                      l627 0759                      l619 04EE  
                    l651 02D7                      l643 0326                      l660 0142  
                    l636 07E0                      l628 0750                      l644 02AC  
                    l661 0151                      l637 07D8                      l629 0758  
                    l653 02EE                      l645 029E                      l662 0156  
                    l654 02EE                      l646 02B3                      l655 02FA  
                    l647 02CF                      l656 031D                      l648 02B4  
                    l649 02D6                      l659 0138             __CFG_CPD$OFF 0000  
                    fsr0 0004                      indf 0000             __CFG_FOSC$HS 0000  
           ___flmul@aexp 0032             ___flmul@bexp 0033             ___flmul@sign 002D  
           ___flmul@temp 0038             ___flmul@prod 0034             __CFG_LVP$OFF 0000  
           ___fltol@exp1 0044                     l1220 012E                     l1300 04C0  
                   l1230 0151                     l1222 0130                     l1310 04DE  
                   l1302 04C5                     l1232 0156                     l1224 0138  
                   l1400 07C4                     l1320 050B                     l1312 04E4  
                   l1304 04CE                     l1240 01E7                     l1226 013C  
                   l1410 07ED                     l1402 07D2                     l1330 05A8  
                   l1322 0528                     l1314 04ED                     l1306 04D0  
                   l1250 0208                     l1242 01E8                     l1234 007A  
                   l1228 014B                     l1404 07D6                     l1340 060B  
                   l1332 05B1                     l1324 0544                     l1316 04EE  
                   l1308 04D9                     l1252 020C                     l1260 0231  
                   l1244 01FD                     l1236 01C9                     l1420 028F  
                   l1412 0266                     l1500 00E0                     l1510 0105  
                   l1406 07D8                     l1350 06AB                     l1342 0624  
                   l1334 05C1                     l1326 0570                     l1318 04FE  
                   l1270 0259                     l1262 0237                     l1254 0213  
                   l1246 01FE                     l1238 01DE                     l1430 02B4  
                   l1422 0298                     l1414 026B                     l1502 00E2  
                   l1520 0127                     l1512 0108                     l1408 07E4  
                   l1360 0719                     l1352 06D1                     l1344 0641  
                   l1336 05DE                     l1328 058C                     l1280 048C  
                   l1272 0479                     l1264 0240                     l1256 021C  
                   l1248 0206                     l1440 02E7                     l1432 02B8  
                   l1424 0299                     l1416 026F                     l1504 00E4  
                   l1600 03F7                     l1522 012C                     l1514 010C  
                   l1370 0734                     l1362 071D                     l1354 06F9  
                   l1346 066E                     l1338 05EE                     l1290 04AA  
                   l1282 0491                     l1274 0480                     l1266 0242  
                   l1258 021E                     l1450 031B                     l1442 02F2  
                   l1434 02C6                     l1426 029E                     l1418 027F  
                   l1506 00F1                     l1610 042F                     l1602 03FD  
                   l1516 0119                     l1380 0759                     l1372 0735  
                   l1364 071F                     l1356 0702                     l1348 067E  
                   l1292 04AF                     l1284 0496                     l1276 0486  
                   l1268 0254                     l1452 031D                     l1444 02FC  
                   l1436 02D7                     l1428 02AC                     l1460 0194  
                   l1508 00F6                     l1620 0458                     l1612 0435  
                   l1604 0405                     l1518 0120                     l1382 075E  
                   l1390 0791                     l1374 0739                     l1366 0728  
                   l1358 0710                     l1294 04B5                     l1286 049F  
                   l1278 048A                     l1454 0326                     l1446 0312  
                   l1438 02E3                     l1462 0199                     l1470 01BD  
                   l1622 045E                     l1614 043C                     l1606 041D  
                   l1392 079E                     l1384 076C                     l1376 074D  
                   l1368 072F                     l1296 04B9                     l1288 04A1  
                   l1448 0317                     l1464 01A1                     l1456 0157  
                   l1480 00A3                     l1472 0098                     l1616 0442  
                   l1608 0423                     l1624 046E                     l1560 0336  
                   l1394 07A9                     l1386 0770                     l1378 0754  
                   l1298 04BB                     l1466 01A9                     l1458 0191  
                   l1482 00A4                     l1474 009C                     l1490 00C8  
                   l1618 044F                     l1570 0354                     l1562 0337  
                   l1554 0327                     l1396 07B8                     l1388 0789  
                   l1468 01B4                     l1484 00A7                     l1476 009D  
                   l1492 00C9                     l1580 0398                     l1572 035A  
                   l1564 033E                     l1556 032C                     l1398 07C2  
                   l1478 00A0                     l1494 00CD                     l1486 00BE  
                   l1590 03C8                     l1582 039E                     l1574 0361  
                   l1566 0348                     l1558 0332                     l1496 00D4  
                   l1488 00C1                     l1592 03D1                     l1576 0378  
                   l1568 034E                     l1584 03B3                     l1498 00DA  
                   l1594 03D8                     l1586 03BC                     l1578 037D  
                   l1596 03E5                     l1588 03C2                     l1598 03EE  
                   STR_1 001C                     STR_2 0009                     STR_3 0035  
                   STR_4 0045                     STR_5 0035                     STR_6 002B  
                   STR_7 0038                     u1100 01F6                     u1110 020C  
                   u1111 020B                     u1200 0491                     u1120 0213  
                   u1201 0490                     u1121 0212                     u1105 01F1  
                   u1050 013C                     u1210 0496                     u1051 013B  
                   u1211 0495                     u1220 04B9                     u1140 022F  
                   u1301 059A                     u1221 04B8                     u1141 022E  
                   u1070 0150                     u1302 05A1                     u1230 04C0  
                   u1150 0237                     u1071 014F                     u1303 05A8  
                   u1231 04BF                     u1151 0236                     u1135 021F  
                   u1400 06DF                     u1240 04C5                     u1080 0085  
                   u1065 0143                     u1321 05D0                     u1241 04C4  
                   u1081 0084                     u1322 05D7                     u1250 04DE  
                   u1170 0252                     u1090 01DE                     u1411 06EB  
                   u1331 05FD                     u1323 05DE                     u1315 05AA  
                   u1251 04DD                     u1171 0251                     u1091 01DD  
                   u1500 075E                     u1412 06F2                     u1332 0604  
                   u1260 04E3                     u1180 0259                     u1501 075D  
                   u1413 06F9                     u1405 06DA                     u1333 060B  
                   u1261 04E2                     u1181 0258                     u1165 0244  
                   u1510 0770                     u1190 048A                     u1511 076F  
                   u1351 0633                     u1271 0536                     u1191 0489  
                   u1520 077F                     u1440 071D                     u1352 063A  
                   u1272 053D                     u1600 02B2                     u1441 071C  
                   u1425 06FB                     u1361 0660                     u1353 0641  
                   u1345 060D                     u1281 0552                     u1273 0544  
                   u1601 02B1                     u1530 079E                     u1362 0667  
                   u1282 0559                     u1531 079D                     u1435 0712  
                   u1371 068D                     u1363 066E                     u1291 057E  
                   u1283 0560                     u1540 07B8                     u1460 0733  
                   u1380 06B7                     u1372 0694                     u1292 0585  
                   u1620 02D5                     u1700 0199                     u1541 07B7  
                   u1525 077A                     u1461 0732                     u1373 069B  
                   u1293 058C                     u1621 02D4                     u1701 0198  
                   u1550 07D6                     u1470 0739                     u1710 01C7  
                   u1551 07D5                     u1535 079A                     u1471 0738  
                   u1455 0721                     u1391 06C3                     u1615 02C7  
                   u1711 01C6                     u1480 074D                     u1392 06CA  
                   u1640 02E7                     u1560 026B                     u1720 00C7  
                   u1545 07B4                     u1481 074C                     u1393 06D1  
                   u1385 06B2                     u1641 02E6                     u1561 026A  
                   u1721 00C6                     u1490 0754                     u1650 02ED  
                   u1570 026F                     u1730 00D3                     u1491 0753  
                   u1651 02EC                     u1635 02DB                     u1571 026E  
                   u1715 01C3                     u1731 00D2                     u1660 02F2  
                   u1580 028F                     u1740 00D9                     u1900 03BB  
                   u1661 02F1                     u1581 028E                     u1741 00D8  
                   u1901 03BA                     u1670 0307                     u1750 0103  
                   u1910 03EE                     u1751 0102                     u1911 03ED  
                   u1760 010C                     u1680 0317                     u1920 03F7  
                   u1761 010B                     u1681 0316                     u1921 03F6  
                   u1690 031B                     u1930 0405                     u1850 034E  
                   u1691 031A                     u1675 0302                     u1595 02A3  
                   u1931 0404                     u1851 034D                     u1940 0423  
                   u1860 0354                     u1941 0422                     u1861 0353  
                   u1790 0126                     u1950 043C                     u1870 0361  
                   u1791 0125                     u1775 0113                     u1951 043B  
                   u1871 0360                     u1960 0458                     u1880 037D  
                   u1785 011A                     u1961 0457                     u1881 037C  
                   u1970 0475                     u1890 039E                     u1971 0474  
                   u1891 039D                     u1987 01AF             __CFG_WRT$OFF 0000  
                   _main 0327                     btemp 007E                     start 0000  
          __CFG_IESO$OFF 0000            ___fltol@sign1 0043                    ?_main 0070  
          __CFG_WDTE$OFF 0000          __end_of___flmul 07EE          __end_of___fltol 0265  
                  _RCREG 001A                    _SPBRG 0099                    _PORTA 0005  
                  _PORTB 0006                    _PORTC 0007                    _PORTD 0008  
                  _TRISA 0085                    _TRISB 0086                    _TRISC 0087  
                  _TRISD 0088                    _TXREG 0019            __CFG_PWRTE$ON 0000  
         __CFG_FCMEN$OFF 0000             main@valorBin 004E           __CFG_BOREN$OFF 0000  
        __end_of_uartRXC 00E1          __end_of_uartTXC 0087          __end_of_uartTXT 0105  
                  pclath 000A                    status 0003                    wtemp0 007E  
         __CFG_MCLRE$OFF 0000          __initialization 07EE             __end_of_main 0479  
                 ??_main 004C                   _ADCON0 001F                   _ADCON1 009F  
                 _ADRESH 001E                   _ADRESL 009E                   _ANSELH 0189  
       __end_of___xxtofl 0327             ?_uartIniciar 0070                   ___wmul 0105  
              ??___flmul 0028                ??___fltol 003E                   _matDir 005D  
                 _matEsq 0061        motorPasso@sentido 0047       __size_of__Umul8_16 002A  
              ??_uartRXC 0070                ??_uartTXC 0070                ??_uartTXT 0071  
           ___xxtofl@arg 007A             ___xxtofl@exp 0079             ___xxtofl@val 0070  
__end_of__initialization 07FC           uartRXC@rxValor 0073               ___fltol@f1 003A  
         __pcstackCOMMON 0070             __pidataBANK0 0087        __end_of__Umul8_16 0157  
             __pmaintext 0327                  ?___wmul 0070                ?___xxtofl 0070  
             __stringtab 0003                  ___flmul 0479                  ___fltol 01C9  
            uartTXC@dado 0070          __size_of___wmul 0028     __size_of_uartIniciar 0013  
                __ptext1 00E1                  __ptext2 0079                  __ptext3 00BE  
                __ptext4 0098                  __ptext5 0157                  __ptext6 0265  
                __ptext7 01C9                  __ptext8 0479                  __ptext9 012D  
             ??___xxtofl 0074                  _uartRXC 00BE                  _uartTXC 0079  
                _uartTXT 00E1                  main@ang 0052     end_of_initialization 07FC  
              _RCSTAbits 0018               _motorPasso 0157                _PORTBbits 0006  
          ___xxtofl@sign 0078                _TRISCbits 0087              ___flmul@grs 002E  
             main@contar 0050                _TXSTAbits 0098           __end_of___wmul 012D  
    start_initialization 07EE     adcIniciarCanal@F1277 0054              ?_motorPasso 0045  
       motorPasso@contar 004A                 ??___wmul 0074               init_fetch0 00AB  
              __Umul8_16 012D              __pdataBANK0 0054                ___flmul@a 0024  
              ___flmul@b 0020            uartRXC@tmrOut 0071                ___latbits 0002  
          __pcstackBANK0 0020        __size_of___xxtofl 00C2                 ?___flmul 0020  
               ?___fltol 003A               ?__Umul8_16 0070                __pstrings 0003  
               ?_uartRXC 0070                 ?_uartTXC 0070                 ?_uartTXT 0070  
    __size_of_motorPasso 0072           ___wmul@product 0074                 _PIE1bits 008C  
               _PIR1bits 000C            ??_uartIniciar 0070               _ADCON0bits 001F  
            __stringbase 0008        ___wmul@multiplier 0070                main@valor 0051  
           uartRXC@kTemp 0072              ??__Umul8_16 0072         __size_of___flmul 0375  
       __size_of___fltol 009C      __end_of_uartIniciar 00AB       __end_of__stringtab 0009  
          motorPasso@ang 0045                 ___xxtofl 0265                 __ptext10 0105  
       __size_of_uartRXC 0023         __size_of_uartTXC 000E         __size_of_uartTXT 0024  
      __CFG_BOR4V$BOR40V 0000             uartTXT@texto 0073            __size_of_main 0152  
           ??_motorPasso 0048                 init_ram0 00AF       __end_of_motorPasso 01C9  
               uartTXT@i 0072                stringcode 0003              _uartIniciar 0098  
 __Umul8_16@multiplicand 0070                 stringdir 0003                 stringtab 0003  
   __Umul8_16@multiplier 0078        __Umul8_16@product 0074  
